Archive member included because of file (symbol)

C:\Users\Nandi\AppData\Local\V.Micro\Arduino\Builds\sharpmem\Arduino_STM32_mapleMini/core.a(exc.S.o)
                              (__exc_hardfault)
C:\Users\Nandi\AppData\Local\V.Micro\Arduino\Builds\sharpmem\Arduino_STM32_mapleMini/core.a(isrs.S.o)
                              (__stm32reservedexception7)
C:\Users\Nandi\AppData\Local\V.Micro\Arduino\Builds\sharpmem\Arduino_STM32_mapleMini/core.a(vector_table.S.o)
                              (__stm32_vector_table)
C:\Users\Nandi\AppData\Local\V.Micro\Arduino\Builds\sharpmem\Arduino_STM32_mapleMini/core.a(dma.c.o)
                              C:\Users\Nandi\AppData\Local\V.Micro\Arduino\Builds\sharpmem\Arduino_STM32_mapleMini\SPI\SPI.cpp.o (dma_init)
C:\Users\Nandi\AppData\Local\V.Micro\Arduino\Builds\sharpmem\Arduino_STM32_mapleMini/core.a(dma_f1.c.o)
                              C:\Users\Nandi\AppData\Local\V.Micro\Arduino\Builds\sharpmem\Arduino_STM32_mapleMini\SPI\SPI.cpp.o (dma_set_num_transfers)
C:\Users\Nandi\AppData\Local\V.Micro\Arduino\Builds\sharpmem\Arduino_STM32_mapleMini/core.a(rcc.c.o)
                              C:\Users\Nandi\AppData\Local\V.Micro\Arduino\Builds\sharpmem\Arduino_STM32_mapleMini\SPI\SPI.cpp.o (rcc_dev_clk)
C:\Users\Nandi\AppData\Local\V.Micro\Arduino\Builds\sharpmem\Arduino_STM32_mapleMini/core.a(rcc_f1.c.o)
                              C:\Users\Nandi\AppData\Local\V.Micro\Arduino\Builds\sharpmem\Arduino_STM32_mapleMini/core.a(dma.c.o) (rcc_clk_enable)
C:\Users\Nandi\AppData\Local\V.Micro\Arduino\Builds\sharpmem\Arduino_STM32_mapleMini/core.a(spi.c.o)
                              C:\Users\Nandi\AppData\Local\V.Micro\Arduino\Builds\sharpmem\Arduino_STM32_mapleMini\SPI\SPI.cpp.o (spi_init)
C:\Users\Nandi\AppData\Local\V.Micro\Arduino\Builds\sharpmem\Arduino_STM32_mapleMini/core.a(spi_f1.c.o)
                              C:\Users\Nandi\AppData\Local\V.Micro\Arduino\Builds\sharpmem\Arduino_STM32_mapleMini\SPI\SPI.cpp.o (spi_config_gpios)
C:\Users\Nandi\AppData\Local\V.Micro\Arduino\Builds\sharpmem\Arduino_STM32_mapleMini/core.a(systick.c.o)
                              C:\Users\Nandi\AppData\Local\V.Micro\Arduino\Builds\sharpmem\Arduino_STM32_mapleMini\sharpmem.cpp.o (systick_uptime_millis)
C:\Users\Nandi\AppData\Local\V.Micro\Arduino\Builds\sharpmem\Arduino_STM32_mapleMini/core.a(timer.c.o)
                              C:\Users\Nandi\AppData\Local\V.Micro\Arduino\Builds\sharpmem\Arduino_STM32_mapleMini\SPI\SPI.cpp.o (timer_set_mode)
C:\Users\Nandi\AppData\Local\V.Micro\Arduino\Builds\sharpmem\Arduino_STM32_mapleMini/core.a(util.c.o)
                              C:\Users\Nandi\AppData\Local\V.Micro\Arduino\Builds\sharpmem\Arduino_STM32_mapleMini/core.a(exc.S.o) (__error)
C:\Users\Nandi\AppData\Local\V.Micro\Arduino\Builds\sharpmem\Arduino_STM32_mapleMini/core.a(cxxabi-compat.cpp.o)
                              C:\Users\Nandi\AppData\Local\V.Micro\Arduino\Builds\sharpmem\Arduino_STM32_mapleMini\Adafruit-GFX-Library-master\Adafruit_GFX.cpp.o (__cxa_pure_virtual)
C:\Users\Nandi\AppData\Local\V.Micro\Arduino\Builds\sharpmem\Arduino_STM32_mapleMini/core.a(main.cpp.o)
                              (main)
C:\Users\Nandi\AppData\Local\V.Micro\Arduino\Builds\sharpmem\Arduino_STM32_mapleMini/core.a(Print.cpp.o)
                              C:\Users\Nandi\AppData\Local\V.Micro\Arduino\Builds\sharpmem\Arduino_STM32_mapleMini\Adafruit-GFX-Library-master\Adafruit_GFX.cpp.o (Print::write(char const*))
C:\Users\Nandi\AppData\Local\V.Micro\Arduino\Builds\sharpmem\Arduino_STM32_mapleMini/core.a(usb_serial.cpp.o)
                              C:\Users\Nandi\AppData\Local\V.Micro\Arduino\Builds\sharpmem\Arduino_STM32_mapleMini\sharpmem.cpp.o (USBSerial::begin(unsigned long))
C:\Users\Nandi\AppData\Local\V.Micro\Arduino\Builds\sharpmem\Arduino_STM32_mapleMini/core.a(wirish_digital.cpp.o)
                              C:\Users\Nandi\AppData\Local\V.Micro\Arduino\Builds\sharpmem\Arduino_STM32_mapleMini\SharpMemSTM32.cpp.o (digitalWrite(unsigned char, unsigned char))
C:\Users\Nandi\AppData\Local\V.Micro\Arduino\Builds\sharpmem\Arduino_STM32_mapleMini/core.a(wirish_time.cpp.o)
                              C:\Users\Nandi\AppData\Local\V.Micro\Arduino\Builds\sharpmem\Arduino_STM32_mapleMini\SharpMemSTM32.cpp.o (delayMicroseconds(unsigned long))
C:\Users\Nandi\AppData\Local\V.Micro\Arduino\Builds\sharpmem\Arduino_STM32_mapleMini/core.a(wirish_digital_f1.cpp.o)
                              C:\Users\Nandi\AppData\Local\V.Micro\Arduino\Builds\sharpmem\Arduino_STM32_mapleMini\SharpMemSTM32.cpp.o (pinMode(unsigned char, WiringPinMode))
C:\Users\Nandi\AppData\Local\V.Micro\Arduino\Builds\sharpmem\Arduino_STM32_mapleMini/core.a(start.S.o)
                              (__start__)
C:\Users\Nandi\AppData\Local\V.Micro\Arduino\Builds\sharpmem\Arduino_STM32_mapleMini/core.a(start_c.c.o)
                              (start_c)
C:\Users\Nandi\AppData\Local\V.Micro\Arduino\Builds\sharpmem\Arduino_STM32_mapleMini/core.a(board.cpp.o)
                              C:\Users\Nandi\AppData\Local\V.Micro\Arduino\Builds\sharpmem\Arduino_STM32_mapleMini\SPI\SPI.cpp.o (PIN_MAP)
C:\Users\Nandi\AppData\Local\V.Micro\Arduino\Builds\sharpmem\Arduino_STM32_mapleMini/core.a(boards.cpp.o)
                              C:\Users\Nandi\AppData\Local\V.Micro\Arduino\Builds\sharpmem\Arduino_STM32_mapleMini/core.a(main.cpp.o) (init())
C:\Users\Nandi\AppData\Local\V.Micro\Arduino\Builds\sharpmem\Arduino_STM32_mapleMini/core.a(boards_setup.cpp.o)
                              C:\Users\Nandi\AppData\Local\V.Micro\Arduino\Builds\sharpmem\Arduino_STM32_mapleMini/core.a(boards.cpp.o) (wirish::priv::board_reset_pll())
C:\Users\Nandi\AppData\Local\V.Micro\Arduino\Builds\sharpmem\Arduino_STM32_mapleMini/core.a(adc.c.o)
                              C:\Users\Nandi\AppData\Local\V.Micro\Arduino\Builds\sharpmem\Arduino_STM32_mapleMini/core.a(boards.cpp.o) (adc_set_sample_rate)
C:\Users\Nandi\AppData\Local\V.Micro\Arduino\Builds\sharpmem\Arduino_STM32_mapleMini/core.a(adc_f1.c.o)
                              C:\Users\Nandi\AppData\Local\V.Micro\Arduino\Builds\sharpmem\Arduino_STM32_mapleMini/core.a(boards.cpp.o) (adc_set_prescaler)
C:\Users\Nandi\AppData\Local\V.Micro\Arduino\Builds\sharpmem\Arduino_STM32_mapleMini/core.a(flash.c.o)
                              C:\Users\Nandi\AppData\Local\V.Micro\Arduino\Builds\sharpmem\Arduino_STM32_mapleMini/core.a(boards.cpp.o) (flash_set_latency)
C:\Users\Nandi\AppData\Local\V.Micro\Arduino\Builds\sharpmem\Arduino_STM32_mapleMini/core.a(gpio_f1.c.o)
                              C:\Users\Nandi\AppData\Local\V.Micro\Arduino\Builds\sharpmem\Arduino_STM32_mapleMini/core.a(boards_setup.cpp.o) (gpio_init_all)
C:\Users\Nandi\AppData\Local\V.Micro\Arduino\Builds\sharpmem\Arduino_STM32_mapleMini/core.a(iwdg.c.o)
                              C:\Users\Nandi\AppData\Local\V.Micro\Arduino\Builds\sharpmem\Arduino_STM32_mapleMini/core.a(usb_serial.cpp.o) (iwdg_init)
C:\Users\Nandi\AppData\Local\V.Micro\Arduino\Builds\sharpmem\Arduino_STM32_mapleMini/core.a(nvic.c.o)
                              C:\Users\Nandi\AppData\Local\V.Micro\Arduino\Builds\sharpmem\Arduino_STM32_mapleMini/core.a(boards.cpp.o) (nvic_init)
C:\Users\Nandi\AppData\Local\V.Micro\Arduino\Builds\sharpmem\Arduino_STM32_mapleMini/core.a(usart.c.o)
                              C:\Users\Nandi\AppData\Local\V.Micro\Arduino\Builds\sharpmem\Arduino_STM32_mapleMini/core.a(util.c.o) (usart_tx)
C:\Users\Nandi\AppData\Local\V.Micro\Arduino\Builds\sharpmem\Arduino_STM32_mapleMini/core.a(usart_f1.c.o)
                              C:\Users\Nandi\AppData\Local\V.Micro\Arduino\Builds\sharpmem\Arduino_STM32_mapleMini/core.a(board.cpp.o) (USART3)
C:\Users\Nandi\AppData\Local\V.Micro\Arduino\Builds\sharpmem\Arduino_STM32_mapleMini/core.a(usart_private.c.o)
                              C:\Users\Nandi\AppData\Local\V.Micro\Arduino\Builds\sharpmem\Arduino_STM32_mapleMini/core.a(usart_f1.c.o) (_usart_clock_freq)
C:\Users\Nandi\AppData\Local\V.Micro\Arduino\Builds\sharpmem\Arduino_STM32_mapleMini/core.a(usb.c.o)
                              C:\Users\Nandi\AppData\Local\V.Micro\Arduino\Builds\sharpmem\Arduino_STM32_mapleMini/core.a(usb_serial.cpp.o) (USBLIB)
C:\Users\Nandi\AppData\Local\V.Micro\Arduino\Builds\sharpmem\Arduino_STM32_mapleMini/core.a(usb_cdcacm.c.o)
                              C:\Users\Nandi\AppData\Local\V.Micro\Arduino\Builds\sharpmem\Arduino_STM32_mapleMini/core.a(usb_serial.cpp.o) (usb_cdcacm_set_hooks)
C:\Users\Nandi\AppData\Local\V.Micro\Arduino\Builds\sharpmem\Arduino_STM32_mapleMini/core.a(usb_reg_map.c.o)
                              C:\Users\Nandi\AppData\Local\V.Micro\Arduino\Builds\sharpmem\Arduino_STM32_mapleMini/core.a(usb_cdcacm.c.o) (usb_copy_to_pma)
C:\Users\Nandi\AppData\Local\V.Micro\Arduino\Builds\sharpmem\Arduino_STM32_mapleMini/core.a(usb_core.c.o)
                              C:\Users\Nandi\AppData\Local\V.Micro\Arduino\Builds\sharpmem\Arduino_STM32_mapleMini/core.a(usb_cdcacm.c.o) (Standard_GetDescriptorData)
C:\Users\Nandi\AppData\Local\V.Micro\Arduino\Builds\sharpmem\Arduino_STM32_mapleMini/core.a(usb_init.c.o)
                              C:\Users\Nandi\AppData\Local\V.Micro\Arduino\Builds\sharpmem\Arduino_STM32_mapleMini/core.a(usb.c.o) (pInformation)
C:\Users\Nandi\AppData\Local\V.Micro\Arduino\Builds\sharpmem\Arduino_STM32_mapleMini/core.a(usb_mem.c.o)
                              C:\Users\Nandi\AppData\Local\V.Micro\Arduino\Builds\sharpmem\Arduino_STM32_mapleMini/core.a(usb_core.c.o) (UserToPMABufferCopy)
C:\Users\Nandi\AppData\Local\V.Micro\Arduino\Builds\sharpmem\Arduino_STM32_mapleMini/core.a(usb_regs.c.o)
                              C:\Users\Nandi\AppData\Local\V.Micro\Arduino\Builds\sharpmem\Arduino_STM32_mapleMini/core.a(usb_core.c.o) (SetEPTxStatus)
C:\Users\Nandi\AppData\Local\V.Micro\Arduino\Builds\sharpmem\Arduino_STM32_mapleMini/core.a(HardwareSerial.cpp.o)
                              C:\Users\Nandi\AppData\Local\V.Micro\Arduino\Builds\sharpmem\Arduino_STM32_mapleMini/core.a(board.cpp.o) (HardwareSerial::HardwareSerial(usart_dev*, unsigned char, unsigned char))
C:\Users\Nandi\AppData\Local\V.Micro\Arduino\Builds\sharpmem\Arduino_STM32_mapleMini/core.a(wirish_debug.cpp.o)
                              C:\Users\Nandi\AppData\Local\V.Micro\Arduino\Builds\sharpmem\Arduino_STM32_mapleMini/core.a(board.cpp.o) (disableDebugPorts())
C:\Users\Nandi\AppData\Local\V.Micro\Arduino\Builds\sharpmem\Arduino_STM32_mapleMini/core.a(gpio.c.o)
                              C:\Users\Nandi\AppData\Local\V.Micro\Arduino\Builds\sharpmem\Arduino_STM32_mapleMini/core.a(gpio_f1.c.o) (gpio_init)
c:/users/nandi/appdata/roaming/arduino15/packages/arduino/tools/arm-none-eabi-gcc/4.8.3-2014q1/bin/../lib/gcc/arm-none-eabi/4.8.3/armv7-m\libgcc.a(_arm_addsubdf3.o)
                              C:\Users\Nandi\AppData\Local\V.Micro\Arduino\Builds\sharpmem\Arduino_STM32_mapleMini/core.a(Print.cpp.o) (__aeabi_dsub)
c:/users/nandi/appdata/roaming/arduino15/packages/arduino/tools/arm-none-eabi-gcc/4.8.3-2014q1/bin/../lib/gcc/arm-none-eabi/4.8.3/armv7-m\libgcc.a(_arm_muldivdf3.o)
                              C:\Users\Nandi\AppData\Local\V.Micro\Arduino\Builds\sharpmem\Arduino_STM32_mapleMini\sharpmem.cpp.o (__aeabi_dmul)
c:/users/nandi/appdata/roaming/arduino15/packages/arduino/tools/arm-none-eabi-gcc/4.8.3-2014q1/bin/../lib/gcc/arm-none-eabi/4.8.3/armv7-m\libgcc.a(_arm_cmpdf2.o)
                              C:\Users\Nandi\AppData\Local\V.Micro\Arduino\Builds\sharpmem\Arduino_STM32_mapleMini/core.a(Print.cpp.o) (__aeabi_dcmplt)
c:/users/nandi/appdata/roaming/arduino15/packages/arduino/tools/arm-none-eabi-gcc/4.8.3-2014q1/bin/../lib/gcc/arm-none-eabi/4.8.3/armv7-m\libgcc.a(_arm_fixdfsi.o)
                              C:\Users\Nandi\AppData\Local\V.Micro\Arduino\Builds\sharpmem\Arduino_STM32_mapleMini/core.a(Print.cpp.o) (__aeabi_d2iz)
c:/users/nandi/appdata/roaming/arduino15/packages/arduino/tools/arm-none-eabi-gcc/4.8.3-2014q1/bin/../lib/gcc/arm-none-eabi/4.8.3/armv7-m\libgcc.a(_arm_truncdfsf2.o)
                              C:\Users\Nandi\AppData\Local\V.Micro\Arduino\Builds\sharpmem\Arduino_STM32_mapleMini\sharpmem.cpp.o (__aeabi_d2f)
c:/users/nandi/appdata/roaming/arduino15/packages/arduino/tools/arm-none-eabi-gcc/4.8.3-2014q1/bin/../lib/gcc/arm-none-eabi/4.8.3/armv7-m\libgcc.a(_arm_addsubsf3.o)
                              C:\Users\Nandi\AppData\Local\V.Micro\Arduino\Builds\sharpmem\Arduino_STM32_mapleMini\sharpmem.cpp.o (__aeabi_fadd)
c:/users/nandi/appdata/roaming/arduino15/packages/arduino/tools/arm-none-eabi-gcc/4.8.3-2014q1/bin/../lib/gcc/arm-none-eabi/4.8.3/armv7-m\libgcc.a(_arm_muldivsf3.o)
                              C:\Users\Nandi\AppData\Local\V.Micro\Arduino\Builds\sharpmem\Arduino_STM32_mapleMini\sharpmem.cpp.o (__aeabi_fmul)
c:/users/nandi/appdata/roaming/arduino15/packages/arduino/tools/arm-none-eabi-gcc/4.8.3-2014q1/bin/../lib/gcc/arm-none-eabi/4.8.3/armv7-m\libgcc.a(_arm_cmpsf2.o)
                              C:\Users\Nandi\AppData\Local\V.Micro\Arduino\Builds\sharpmem\Arduino_STM32_mapleMini\sharpmem.cpp.o (__aeabi_fcmpgt)
c:/users/nandi/appdata/roaming/arduino15/packages/arduino/tools/arm-none-eabi-gcc/4.8.3-2014q1/bin/../lib/gcc/arm-none-eabi/4.8.3/armv7-m\libgcc.a(_arm_fixsfsi.o)
                              C:\Users\Nandi\AppData\Local\V.Micro\Arduino\Builds\sharpmem\Arduino_STM32_mapleMini\sharpmem.cpp.o (__aeabi_f2iz)
c:/users/nandi/appdata/roaming/arduino15/packages/arduino/tools/arm-none-eabi-gcc/4.8.3-2014q1/bin/../lib/gcc/arm-none-eabi/4.8.3/armv7-m\libgcc.a(_aeabi_uldivmod.o)
                              C:\Users\Nandi\AppData\Local\V.Micro\Arduino\Builds\sharpmem\Arduino_STM32_mapleMini/core.a(Print.cpp.o) (__aeabi_uldivmod)
c:/users/nandi/appdata/roaming/arduino15/packages/arduino/tools/arm-none-eabi-gcc/4.8.3-2014q1/bin/../lib/gcc/arm-none-eabi/4.8.3/armv7-m\libgcc.a(_fixdfdi.o)
                              C:\Users\Nandi\AppData\Local\V.Micro\Arduino\Builds\sharpmem\Arduino_STM32_mapleMini/core.a(Print.cpp.o) (__aeabi_d2lz)
c:/users/nandi/appdata/roaming/arduino15/packages/arduino/tools/arm-none-eabi-gcc/4.8.3-2014q1/bin/../lib/gcc/arm-none-eabi/4.8.3/armv7-m\libgcc.a(_fixunsdfdi.o)
                              c:/users/nandi/appdata/roaming/arduino15/packages/arduino/tools/arm-none-eabi-gcc/4.8.3-2014q1/bin/../lib/gcc/arm-none-eabi/4.8.3/armv7-m\libgcc.a(_fixdfdi.o) (__aeabi_d2ulz)
c:/users/nandi/appdata/roaming/arduino15/packages/arduino/tools/arm-none-eabi-gcc/4.8.3-2014q1/bin/../lib/gcc/arm-none-eabi/4.8.3/armv7-m\libgcc.a(bpabi.o)
                              c:/users/nandi/appdata/roaming/arduino15/packages/arduino/tools/arm-none-eabi-gcc/4.8.3-2014q1/bin/../lib/gcc/arm-none-eabi/4.8.3/armv7-m\libgcc.a(_aeabi_uldivmod.o) (__gnu_uldivmod_helper)
c:/users/nandi/appdata/roaming/arduino15/packages/arduino/tools/arm-none-eabi-gcc/4.8.3-2014q1/bin/../lib/gcc/arm-none-eabi/4.8.3/armv7-m\libgcc.a(_dvmd_tls.o)
                              c:/users/nandi/appdata/roaming/arduino15/packages/arduino/tools/arm-none-eabi-gcc/4.8.3-2014q1/bin/../lib/gcc/arm-none-eabi/4.8.3/armv7-m\libgcc.a(_aeabi_uldivmod.o) (__aeabi_ldiv0)
c:/users/nandi/appdata/roaming/arduino15/packages/arduino/tools/arm-none-eabi-gcc/4.8.3-2014q1/bin/../lib/gcc/arm-none-eabi/4.8.3/armv7-m\libgcc.a(_arm_fixunsdfsi.o)
                              c:/users/nandi/appdata/roaming/arduino15/packages/arduino/tools/arm-none-eabi-gcc/4.8.3-2014q1/bin/../lib/gcc/arm-none-eabi/4.8.3/armv7-m\libgcc.a(_fixunsdfdi.o) (__aeabi_d2uiz)
c:/users/nandi/appdata/roaming/arduino15/packages/arduino/tools/arm-none-eabi-gcc/4.8.3-2014q1/bin/../lib/gcc/arm-none-eabi/4.8.3/armv7-m\libgcc.a(_divdi3.o)
                              c:/users/nandi/appdata/roaming/arduino15/packages/arduino/tools/arm-none-eabi-gcc/4.8.3-2014q1/bin/../lib/gcc/arm-none-eabi/4.8.3/armv7-m\libgcc.a(bpabi.o) (__divdi3)
c:/users/nandi/appdata/roaming/arduino15/packages/arduino/tools/arm-none-eabi-gcc/4.8.3-2014q1/bin/../lib/gcc/arm-none-eabi/4.8.3/armv7-m\libgcc.a(_udivdi3.o)
                              c:/users/nandi/appdata/roaming/arduino15/packages/arduino/tools/arm-none-eabi-gcc/4.8.3-2014q1/bin/../lib/gcc/arm-none-eabi/4.8.3/armv7-m\libgcc.a(bpabi.o) (__udivdi3)
c:/users/nandi/appdata/roaming/arduino15/packages/arduino/tools/arm-none-eabi-gcc/4.8.3-2014q1/bin/../lib/gcc/arm-none-eabi/4.8.3/../../../../arm-none-eabi/lib/armv7-m\libc.a(lib_a-exit.o)
                              c:/users/nandi/appdata/roaming/arduino15/packages/arduino/tools/arm-none-eabi-gcc/4.8.3-2014q1/bin/../lib/gcc/arm-none-eabi/4.8.3/../../../../arm-none-eabi/lib/armv7-m/crt0.o (exit)
c:/users/nandi/appdata/roaming/arduino15/packages/arduino/tools/arm-none-eabi-gcc/4.8.3-2014q1/bin/../lib/gcc/arm-none-eabi/4.8.3/../../../../arm-none-eabi/lib/armv7-m\libc.a(lib_a-impure.o)
                              c:/users/nandi/appdata/roaming/arduino15/packages/arduino/tools/arm-none-eabi-gcc/4.8.3-2014q1/bin/../lib/gcc/arm-none-eabi/4.8.3/../../../../arm-none-eabi/lib/armv7-m\libc.a(lib_a-exit.o) (_global_impure_ptr)
c:/users/nandi/appdata/roaming/arduino15/packages/arduino/tools/arm-none-eabi-gcc/4.8.3-2014q1/bin/../lib/gcc/arm-none-eabi/4.8.3/../../../../arm-none-eabi/lib/armv7-m\libc.a(lib_a-init.o)
                              c:/users/nandi/appdata/roaming/arduino15/packages/arduino/tools/arm-none-eabi-gcc/4.8.3-2014q1/bin/../lib/gcc/arm-none-eabi/4.8.3/../../../../arm-none-eabi/lib/armv7-m/crt0.o (__libc_init_array)
c:/users/nandi/appdata/roaming/arduino15/packages/arduino/tools/arm-none-eabi-gcc/4.8.3-2014q1/bin/../lib/gcc/arm-none-eabi/4.8.3/../../../../arm-none-eabi/lib/armv7-m\libc.a(lib_a-memset.o)
                              c:/users/nandi/appdata/roaming/arduino15/packages/arduino/tools/arm-none-eabi-gcc/4.8.3-2014q1/bin/../lib/gcc/arm-none-eabi/4.8.3/../../../../arm-none-eabi/lib/armv7-m/crt0.o (memset)
c:/users/nandi/appdata/roaming/arduino15/packages/arduino/tools/arm-none-eabi-gcc/4.8.3-2014q1/bin/../lib/gcc/arm-none-eabi/4.8.3/../../../../arm-none-eabi/lib/armv7-m\libc.a(lib_a-rand.o)
                              C:\Users\Nandi\AppData\Local\V.Micro\Arduino\Builds\sharpmem\Arduino_STM32_mapleMini\sharpmem.cpp.o (rand)
c:/users/nandi/appdata/roaming/arduino15/packages/arduino/tools/arm-none-eabi-gcc/4.8.3-2014q1/bin/../lib/gcc/arm-none-eabi/4.8.3/../../../../arm-none-eabi/lib/armv7-m\libc.a(lib_a-strlen.o)
                              C:\Users\Nandi\AppData\Local\V.Micro\Arduino\Builds\sharpmem\Arduino_STM32_mapleMini\Adafruit-GFX-Library-master\Adafruit_GFX.cpp.o (strlen)
c:/users/nandi/appdata/roaming/arduino15/packages/arduino/tools/arm-none-eabi-gcc/4.8.3-2014q1/bin/../lib/gcc/arm-none-eabi/4.8.3/../../../../arm-none-eabi/lib/armv7-m\libc.a(lib_a-strncpy.o)
                              C:\Users\Nandi\AppData\Local\V.Micro\Arduino\Builds\sharpmem\Arduino_STM32_mapleMini\Adafruit-GFX-Library-master\Adafruit_GFX.cpp.o (strncpy)
c:/users/nandi/appdata/roaming/arduino15/packages/arduino/tools/arm-none-eabi-gcc/4.8.3-2014q1/bin/../lib/gcc/arm-none-eabi/4.8.3/../../../../arm-none-eabi/lib/armv7-m\libc.a(lib_a-__call_atexit.o)
                              c:/users/nandi/appdata/roaming/arduino15/packages/arduino/tools/arm-none-eabi-gcc/4.8.3-2014q1/bin/../lib/gcc/arm-none-eabi/4.8.3/../../../../arm-none-eabi/lib/armv7-m\libc.a(lib_a-exit.o) (__call_exitprocs)
c:/users/nandi/appdata/roaming/arduino15/packages/arduino/tools/arm-none-eabi-gcc/4.8.3-2014q1/bin/../lib/gcc/arm-none-eabi/4.8.3/../../../../arm-none-eabi/lib/armv7-m\libc.a(lib_a-atexit.o)
                              c:/users/nandi/appdata/roaming/arduino15/packages/arduino/tools/arm-none-eabi-gcc/4.8.3-2014q1/bin/../lib/gcc/arm-none-eabi/4.8.3/../../../../arm-none-eabi/lib/armv7-m\libc.a(lib_a-__call_atexit.o) (atexit)
c:/users/nandi/appdata/roaming/arduino15/packages/arduino/tools/arm-none-eabi-gcc/4.8.3-2014q1/bin/../lib/gcc/arm-none-eabi/4.8.3/../../../../arm-none-eabi/lib/armv7-m\libc.a(lib_a-fini.o)
                              c:/users/nandi/appdata/roaming/arduino15/packages/arduino/tools/arm-none-eabi-gcc/4.8.3-2014q1/bin/../lib/gcc/arm-none-eabi/4.8.3/../../../../arm-none-eabi/lib/armv7-m\libc.a(lib_a-__call_atexit.o) (__libc_fini_array)
c:/users/nandi/appdata/roaming/arduino15/packages/arduino/tools/arm-none-eabi-gcc/4.8.3-2014q1/bin/../lib/gcc/arm-none-eabi/4.8.3/../../../../arm-none-eabi/lib/armv7-m\libc.a(lib_a-__atexit.o)
                              c:/users/nandi/appdata/roaming/arduino15/packages/arduino/tools/arm-none-eabi-gcc/4.8.3-2014q1/bin/../lib/gcc/arm-none-eabi/4.8.3/../../../../arm-none-eabi/lib/armv7-m\libc.a(lib_a-atexit.o) (__register_exitproc)
c:/users/nandi/appdata/roaming/arduino15/packages/arduino/tools/arm-none-eabi-gcc/4.8.3-2014q1/bin/../lib/gcc/arm-none-eabi/4.8.3/../../../../arm-none-eabi/lib/armv7-m\libnosys.a(_exit.o)
                              c:/users/nandi/appdata/roaming/arduino15/packages/arduino/tools/arm-none-eabi-gcc/4.8.3-2014q1/bin/../lib/gcc/arm-none-eabi/4.8.3/../../../../arm-none-eabi/lib/armv7-m\libc.a(lib_a-exit.o) (_exit)

Allocating common symbols
Common symbol       size              file

SaveRState          0x2               C:\Users\Nandi\AppData\Local\V.Micro\Arduino\Builds\sharpmem\Arduino_STM32_mapleMini/core.a(usb.c.o)
SaveState           0x2               C:\Users\Nandi\AppData\Local\V.Micro\Arduino\Builds\sharpmem\Arduino_STM32_mapleMini/core.a(usb_init.c.o)
pProperty           0x4               C:\Users\Nandi\AppData\Local\V.Micro\Arduino\Builds\sharpmem\Arduino_STM32_mapleMini/core.a(usb_init.c.o)
EPindex             0x1               C:\Users\Nandi\AppData\Local\V.Micro\Arduino\Builds\sharpmem\Arduino_STM32_mapleMini/core.a(usb_init.c.o)
SaveTState          0x2               C:\Users\Nandi\AppData\Local\V.Micro\Arduino\Builds\sharpmem\Arduino_STM32_mapleMini/core.a(usb.c.o)
systick_uptime_millis
                    0x4               C:\Users\Nandi\AppData\Local\V.Micro\Arduino\Builds\sharpmem\Arduino_STM32_mapleMini/core.a(systick.c.o)
Device_Info         0x1c              C:\Users\Nandi\AppData\Local\V.Micro\Arduino\Builds\sharpmem\Arduino_STM32_mapleMini/core.a(usb_init.c.o)
pUser_Standard_Requests
                    0x4               C:\Users\Nandi\AppData\Local\V.Micro\Arduino\Builds\sharpmem\Arduino_STM32_mapleMini/core.a(usb_init.c.o)
StatusInfo          0x2               C:\Users\Nandi\AppData\Local\V.Micro\Arduino\Builds\sharpmem\Arduino_STM32_mapleMini/core.a(usb_core.c.o)
pInformation        0x4               C:\Users\Nandi\AppData\Local\V.Micro\Arduino\Builds\sharpmem\Arduino_STM32_mapleMini/core.a(usb_init.c.o)
ResumeS             0x2               C:\Users\Nandi\AppData\Local\V.Micro\Arduino\Builds\sharpmem\Arduino_STM32_mapleMini/core.a(usb.c.o)
wInterrupt_Mask     0x2               C:\Users\Nandi\AppData\Local\V.Micro\Arduino\Builds\sharpmem\Arduino_STM32_mapleMini/core.a(usb_init.c.o)

Discarded input sections

 .text          0x00000000        0x0 c:/users/nandi/appdata/roaming/arduino15/packages/arduino/tools/arm-none-eabi-gcc/4.8.3-2014q1/bin/../lib/gcc/arm-none-eabi/4.8.3/armv7-m/crti.o
 .data          0x00000000        0x0 c:/users/nandi/appdata/roaming/arduino15/packages/arduino/tools/arm-none-eabi-gcc/4.8.3-2014q1/bin/../lib/gcc/arm-none-eabi/4.8.3/armv7-m/crti.o
 .bss           0x00000000        0x0 c:/users/nandi/appdata/roaming/arduino15/packages/arduino/tools/arm-none-eabi-gcc/4.8.3-2014q1/bin/../lib/gcc/arm-none-eabi/4.8.3/armv7-m/crti.o
 .data          0x00000000        0x4 c:/users/nandi/appdata/roaming/arduino15/packages/arduino/tools/arm-none-eabi-gcc/4.8.3-2014q1/bin/../lib/gcc/arm-none-eabi/4.8.3/armv7-m/crtbegin.o
 .text          0x00000000       0x74 c:/users/nandi/appdata/roaming/arduino15/packages/arduino/tools/arm-none-eabi-gcc/4.8.3-2014q1/bin/../lib/gcc/arm-none-eabi/4.8.3/../../../../arm-none-eabi/lib/armv7-m/crt0.o
 .data          0x00000000        0x0 c:/users/nandi/appdata/roaming/arduino15/packages/arduino/tools/arm-none-eabi-gcc/4.8.3-2014q1/bin/../lib/gcc/arm-none-eabi/4.8.3/../../../../arm-none-eabi/lib/armv7-m/crt0.o
 .bss           0x00000000        0x0 c:/users/nandi/appdata/roaming/arduino15/packages/arduino/tools/arm-none-eabi-gcc/4.8.3-2014q1/bin/../lib/gcc/arm-none-eabi/4.8.3/../../../../arm-none-eabi/lib/armv7-m/crt0.o
 .ARM.extab     0x00000000        0x0 c:/users/nandi/appdata/roaming/arduino15/packages/arduino/tools/arm-none-eabi-gcc/4.8.3-2014q1/bin/../lib/gcc/arm-none-eabi/4.8.3/../../../../arm-none-eabi/lib/armv7-m/crt0.o
 .ARM.exidx     0x00000000        0x8 c:/users/nandi/appdata/roaming/arduino15/packages/arduino/tools/arm-none-eabi-gcc/4.8.3-2014q1/bin/../lib/gcc/arm-none-eabi/4.8.3/../../../../arm-none-eabi/lib/armv7-m/crt0.o
 .text          0x00000000        0x0 C:\Users\Nandi\AppData\Local\V.Micro\Arduino\Builds\sharpmem\Arduino_STM32_mapleMini\sharpmem.cpp.o
 .data          0x00000000        0x0 C:\Users\Nandi\AppData\Local\V.Micro\Arduino\Builds\sharpmem\Arduino_STM32_mapleMini\sharpmem.cpp.o
 .bss           0x00000000        0x0 C:\Users\Nandi\AppData\Local\V.Micro\Arduino\Builds\sharpmem\Arduino_STM32_mapleMini\sharpmem.cpp.o
 .bss._ZL15dma1_ch3_Active
                0x00000000        0x1 C:\Users\Nandi\AppData\Local\V.Micro\Arduino\Builds\sharpmem\Arduino_STM32_mapleMini\sharpmem.cpp.o
 .bss.p         0x00000000        0x1 C:\Users\Nandi\AppData\Local\V.Micro\Arduino\Builds\sharpmem\Arduino_STM32_mapleMini\sharpmem.cpp.o
 .data.size     0x00000000        0x1 C:\Users\Nandi\AppData\Local\V.Micro\Arduino\Builds\sharpmem\Arduino_STM32_mapleMini\sharpmem.cpp.o
 .text          0x00000000        0x0 C:\Users\Nandi\AppData\Local\V.Micro\Arduino\Builds\sharpmem\Arduino_STM32_mapleMini\SPI\SPI.cpp.o
 .data          0x00000000        0x0 C:\Users\Nandi\AppData\Local\V.Micro\Arduino\Builds\sharpmem\Arduino_STM32_mapleMini\SPI\SPI.cpp.o
 .bss           0x00000000        0x0 C:\Users\Nandi\AppData\Local\V.Micro\Arduino\Builds\sharpmem\Arduino_STM32_mapleMini\SPI\SPI.cpp.o
 .text._ZN8SPIClass10beginSlaveEv
                0x00000000       0x3c C:\Users\Nandi\AppData\Local\V.Micro\Arduino\Builds\sharpmem\Arduino_STM32_mapleMini\SPI\SPI.cpp.o
 .text._ZN8SPIClass3endEv
                0x00000000       0x36 C:\Users\Nandi\AppData\Local\V.Micro\Arduino\Builds\sharpmem\Arduino_STM32_mapleMini\SPI\SPI.cpp.o
 .text._ZN8SPIClass16beginTransactionEh11SPISettings
                0x00000000       0x3e C:\Users\Nandi\AppData\Local\V.Micro\Arduino\Builds\sharpmem\Arduino_STM32_mapleMini\SPI\SPI.cpp.o
 .text._ZN8SPIClass14endTransactionEv
                0x00000000        0x2 C:\Users\Nandi\AppData\Local\V.Micro\Arduino\Builds\sharpmem\Arduino_STM32_mapleMini\SPI\SPI.cpp.o
 .text._ZN8SPIClass4readEPhm
                0x00000000       0x1e C:\Users\Nandi\AppData\Local\V.Micro\Arduino\Builds\sharpmem\Arduino_STM32_mapleMini\SPI\SPI.cpp.o
 .text._ZN8SPIClass4readEv
                0x00000000       0x14 C:\Users\Nandi\AppData\Local\V.Micro\Arduino\Builds\sharpmem\Arduino_STM32_mapleMini\SPI\SPI.cpp.o
 .text._ZN8SPIClass5writeEt
                0x00000000       0x16 C:\Users\Nandi\AppData\Local\V.Micro\Arduino\Builds\sharpmem\Arduino_STM32_mapleMini\SPI\SPI.cpp.o
 .text._ZN8SPIClass11dmaTransferEPhS0_t
                0x00000000      0x14c C:\Users\Nandi\AppData\Local\V.Micro\Arduino\Builds\sharpmem\Arduino_STM32_mapleMini\SPI\SPI.cpp.o
 .text._ZN8SPIClass7dmaSendEPhtb
                0x00000000       0xa2 C:\Users\Nandi\AppData\Local\V.Micro\Arduino\Builds\sharpmem\Arduino_STM32_mapleMini\SPI\SPI.cpp.o
 .text._ZN8SPIClass7dmaSendEPttb
                0x00000000       0xb8 C:\Users\Nandi\AppData\Local\V.Micro\Arduino\Builds\sharpmem\Arduino_STM32_mapleMini\SPI\SPI.cpp.o
 .text._ZN8SPIClass15attachInterruptEv
                0x00000000        0x2 C:\Users\Nandi\AppData\Local\V.Micro\Arduino\Builds\sharpmem\Arduino_STM32_mapleMini\SPI\SPI.cpp.o
 .text._ZN8SPIClass15detachInterruptEv
                0x00000000        0x2 C:\Users\Nandi\AppData\Local\V.Micro\Arduino\Builds\sharpmem\Arduino_STM32_mapleMini\SPI\SPI.cpp.o
 .text._ZN8SPIClass7misoPinEv
                0x00000000       0x10 C:\Users\Nandi\AppData\Local\V.Micro\Arduino\Builds\sharpmem\Arduino_STM32_mapleMini\SPI\SPI.cpp.o
 .text._ZN8SPIClass7mosiPinEv
                0x00000000       0x10 C:\Users\Nandi\AppData\Local\V.Micro\Arduino\Builds\sharpmem\Arduino_STM32_mapleMini\SPI\SPI.cpp.o
 .text._ZN8SPIClass6sckPinEv
                0x00000000       0x10 C:\Users\Nandi\AppData\Local\V.Micro\Arduino\Builds\sharpmem\Arduino_STM32_mapleMini\SPI\SPI.cpp.o
 .text._ZN8SPIClass6nssPinEv
                0x00000000       0x10 C:\Users\Nandi\AppData\Local\V.Micro\Arduino\Builds\sharpmem\Arduino_STM32_mapleMini\SPI\SPI.cpp.o
 .text._ZN8SPIClass4sendEPhm
                0x00000000       0x22 C:\Users\Nandi\AppData\Local\V.Micro\Arduino\Builds\sharpmem\Arduino_STM32_mapleMini\SPI\SPI.cpp.o
 .text._ZN8SPIClass4sendEh
                0x00000000       0x16 C:\Users\Nandi\AppData\Local\V.Micro\Arduino\Builds\sharpmem\Arduino_STM32_mapleMini\SPI\SPI.cpp.o
 .text._ZN8SPIClass4recvEv
                0x00000000        0x4 C:\Users\Nandi\AppData\Local\V.Micro\Arduino\Builds\sharpmem\Arduino_STM32_mapleMini\SPI\SPI.cpp.o
 .data._ZZN8SPIClass11dmaTransferEPhS0_tE2ff
                0x00000000        0x1 C:\Users\Nandi\AppData\Local\V.Micro\Arduino\Builds\sharpmem\Arduino_STM32_mapleMini\SPI\SPI.cpp.o
 .bss._ZL15dma1_ch3_Active
                0x00000000        0x1 C:\Users\Nandi\AppData\Local\V.Micro\Arduino\Builds\sharpmem\Arduino_STM32_mapleMini\SPI\SPI.cpp.o
 .text          0x00000000        0x0 C:\Users\Nandi\AppData\Local\V.Micro\Arduino\Builds\sharpmem\Arduino_STM32_mapleMini\Adafruit-GFX-Library-master\glcdfont.c.o
 .data          0x00000000        0x0 C:\Users\Nandi\AppData\Local\V.Micro\Arduino\Builds\sharpmem\Arduino_STM32_mapleMini\Adafruit-GFX-Library-master\glcdfont.c.o
 .bss           0x00000000        0x0 C:\Users\Nandi\AppData\Local\V.Micro\Arduino\Builds\sharpmem\Arduino_STM32_mapleMini\Adafruit-GFX-Library-master\glcdfont.c.o
 .text          0x00000000        0x0 C:\Users\Nandi\AppData\Local\V.Micro\Arduino\Builds\sharpmem\Arduino_STM32_mapleMini\Adafruit-GFX-Library-master\Adafruit_GFX.cpp.o
 .data          0x00000000        0x0 C:\Users\Nandi\AppData\Local\V.Micro\Arduino\Builds\sharpmem\Arduino_STM32_mapleMini\Adafruit-GFX-Library-master\Adafruit_GFX.cpp.o
 .bss           0x00000000        0x0 C:\Users\Nandi\AppData\Local\V.Micro\Arduino\Builds\sharpmem\Arduino_STM32_mapleMini\Adafruit-GFX-Library-master\Adafruit_GFX.cpp.o
 .text._ZN12Adafruit_GFX10drawCircleEssst
                0x00000000      0x19c C:\Users\Nandi\AppData\Local\V.Micro\Arduino\Builds\sharpmem\Arduino_STM32_mapleMini\Adafruit-GFX-Library-master\Adafruit_GFX.cpp.o
 .text._ZN12Adafruit_GFX16drawCircleHelperEsssht
                0x00000000      0x1a0 C:\Users\Nandi\AppData\Local\V.Micro\Arduino\Builds\sharpmem\Arduino_STM32_mapleMini\Adafruit-GFX-Library-master\Adafruit_GFX.cpp.o
 .text._ZN12Adafruit_GFX13drawRoundRectEssssst
                0x00000000      0x10c C:\Users\Nandi\AppData\Local\V.Micro\Arduino\Builds\sharpmem\Arduino_STM32_mapleMini\Adafruit-GFX-Library-master\Adafruit_GFX.cpp.o
 .text._ZN12Adafruit_GFX13fillRoundRectEssssst
                0x00000000       0x92 C:\Users\Nandi\AppData\Local\V.Micro\Arduino\Builds\sharpmem\Arduino_STM32_mapleMini\Adafruit-GFX-Library-master\Adafruit_GFX.cpp.o
 .text._ZN12Adafruit_GFX12drawTriangleEsssssst
                0x00000000       0x56 C:\Users\Nandi\AppData\Local\V.Micro\Arduino\Builds\sharpmem\Arduino_STM32_mapleMini\Adafruit-GFX-Library-master\Adafruit_GFX.cpp.o
 .text._ZN12Adafruit_GFX12fillTriangleEsssssst
                0x00000000      0x1b0 C:\Users\Nandi\AppData\Local\V.Micro\Arduino\Builds\sharpmem\Arduino_STM32_mapleMini\Adafruit-GFX-Library-master\Adafruit_GFX.cpp.o
 .text._ZN12Adafruit_GFX10drawBitmapEssPKhsst
                0x00000000       0x7c C:\Users\Nandi\AppData\Local\V.Micro\Arduino\Builds\sharpmem\Arduino_STM32_mapleMini\Adafruit-GFX-Library-master\Adafruit_GFX.cpp.o
 .text._ZN12Adafruit_GFX10drawBitmapEssPKhsstt
                0x00000000       0x84 C:\Users\Nandi\AppData\Local\V.Micro\Arduino\Builds\sharpmem\Arduino_STM32_mapleMini\Adafruit-GFX-Library-master\Adafruit_GFX.cpp.o
 .text._ZN12Adafruit_GFX11drawXBitmapEssPKhsst
                0x00000000       0x7c C:\Users\Nandi\AppData\Local\V.Micro\Arduino\Builds\sharpmem\Arduino_STM32_mapleMini\Adafruit-GFX-Library-master\Adafruit_GFX.cpp.o
 .text._ZNK12Adafruit_GFX10getCursorXEv
                0x00000000        0x6 C:\Users\Nandi\AppData\Local\V.Micro\Arduino\Builds\sharpmem\Arduino_STM32_mapleMini\Adafruit-GFX-Library-master\Adafruit_GFX.cpp.o
 .text._ZNK12Adafruit_GFX10getCursorYEv
                0x00000000        0x6 C:\Users\Nandi\AppData\Local\V.Micro\Arduino\Builds\sharpmem\Arduino_STM32_mapleMini\Adafruit-GFX-Library-master\Adafruit_GFX.cpp.o
 .text._ZN12Adafruit_GFX12setTextColorEtt
                0x00000000        0x6 C:\Users\Nandi\AppData\Local\V.Micro\Arduino\Builds\sharpmem\Arduino_STM32_mapleMini\Adafruit-GFX-Library-master\Adafruit_GFX.cpp.o
 .text._ZN12Adafruit_GFX11setTextWrapEb
                0x00000000        0x4 C:\Users\Nandi\AppData\Local\V.Micro\Arduino\Builds\sharpmem\Arduino_STM32_mapleMini\Adafruit-GFX-Library-master\Adafruit_GFX.cpp.o
 .text._ZNK12Adafruit_GFX11getRotationEv
                0x00000000        0x4 C:\Users\Nandi\AppData\Local\V.Micro\Arduino\Builds\sharpmem\Arduino_STM32_mapleMini\Adafruit-GFX-Library-master\Adafruit_GFX.cpp.o
 .text._ZN12Adafruit_GFX11setRotationEh
                0x00000000       0x1e C:\Users\Nandi\AppData\Local\V.Micro\Arduino\Builds\sharpmem\Arduino_STM32_mapleMini\Adafruit-GFX-Library-master\Adafruit_GFX.cpp.o
 .text._ZN12Adafruit_GFX5cp437Eb
                0x00000000        0x4 C:\Users\Nandi\AppData\Local\V.Micro\Arduino\Builds\sharpmem\Arduino_STM32_mapleMini\Adafruit-GFX-Library-master\Adafruit_GFX.cpp.o
 .text._ZNK12Adafruit_GFX5widthEv
                0x00000000        0x6 C:\Users\Nandi\AppData\Local\V.Micro\Arduino\Builds\sharpmem\Arduino_STM32_mapleMini\Adafruit-GFX-Library-master\Adafruit_GFX.cpp.o
 .text._ZNK12Adafruit_GFX6heightEv
                0x00000000        0x6 C:\Users\Nandi\AppData\Local\V.Micro\Arduino\Builds\sharpmem\Arduino_STM32_mapleMini\Adafruit-GFX-Library-master\Adafruit_GFX.cpp.o
 .text._ZN19Adafruit_GFX_ButtonC2Ev
                0x00000000        0x6 C:\Users\Nandi\AppData\Local\V.Micro\Arduino\Builds\sharpmem\Arduino_STM32_mapleMini\Adafruit-GFX-Library-master\Adafruit_GFX.cpp.o
 .text._ZN19Adafruit_GFX_Button10initButtonEP12Adafruit_GFXsshhtttPch
                0x00000000       0x3e C:\Users\Nandi\AppData\Local\V.Micro\Arduino\Builds\sharpmem\Arduino_STM32_mapleMini\Adafruit-GFX-Library-master\Adafruit_GFX.cpp.o
 .text._ZN19Adafruit_GFX_Button10drawButtonEb
                0x00000000       0xd2 C:\Users\Nandi\AppData\Local\V.Micro\Arduino\Builds\sharpmem\Arduino_STM32_mapleMini\Adafruit-GFX-Library-master\Adafruit_GFX.cpp.o
 .text._ZN19Adafruit_GFX_Button8containsEss
                0x00000000       0x34 C:\Users\Nandi\AppData\Local\V.Micro\Arduino\Builds\sharpmem\Arduino_STM32_mapleMini\Adafruit-GFX-Library-master\Adafruit_GFX.cpp.o
 .text._ZN19Adafruit_GFX_Button5pressEb
                0x00000000        0x8 C:\Users\Nandi\AppData\Local\V.Micro\Arduino\Builds\sharpmem\Arduino_STM32_mapleMini\Adafruit-GFX-Library-master\Adafruit_GFX.cpp.o
 .text._ZN19Adafruit_GFX_Button9isPressedEv
                0x00000000        0x4 C:\Users\Nandi\AppData\Local\V.Micro\Arduino\Builds\sharpmem\Arduino_STM32_mapleMini\Adafruit-GFX-Library-master\Adafruit_GFX.cpp.o
 .text._ZN19Adafruit_GFX_Button11justPressedEv
                0x00000000       0x10 C:\Users\Nandi\AppData\Local\V.Micro\Arduino\Builds\sharpmem\Arduino_STM32_mapleMini\Adafruit-GFX-Library-master\Adafruit_GFX.cpp.o
 .text._ZN19Adafruit_GFX_Button12justReleasedEv
                0x00000000        0xc C:\Users\Nandi\AppData\Local\V.Micro\Arduino\Builds\sharpmem\Arduino_STM32_mapleMini\Adafruit-GFX-Library-master\Adafruit_GFX.cpp.o
 .text          0x00000000        0x0 C:\Users\Nandi\AppData\Local\V.Micro\Arduino\Builds\sharpmem\Arduino_STM32_mapleMini\SharpMemSTM32.cpp.o
 .data          0x00000000        0x0 C:\Users\Nandi\AppData\Local\V.Micro\Arduino\Builds\sharpmem\Arduino_STM32_mapleMini\SharpMemSTM32.cpp.o
 .bss           0x00000000        0x0 C:\Users\Nandi\AppData\Local\V.Micro\Arduino\Builds\sharpmem\Arduino_STM32_mapleMini\SharpMemSTM32.cpp.o
 .text._ZN8SharpMem8getPixelEtt
                0x00000000       0x1a C:\Users\Nandi\AppData\Local\V.Micro\Arduino\Builds\sharpmem\Arduino_STM32_mapleMini\SharpMemSTM32.cpp.o
 .text._ZN8SharpMem12clearDisplayEv
                0x00000000       0xb0 C:\Users\Nandi\AppData\Local\V.Micro\Arduino\Builds\sharpmem\Arduino_STM32_mapleMini\SharpMemSTM32.cpp.o
 .bss._ZL15dma1_ch3_Active
                0x00000000        0x1 C:\Users\Nandi\AppData\Local\V.Micro\Arduino\Builds\sharpmem\Arduino_STM32_mapleMini\SharpMemSTM32.cpp.o
 .data          0x00000000        0x0 C:\Users\Nandi\AppData\Local\V.Micro\Arduino\Builds\sharpmem\Arduino_STM32_mapleMini/core.a(exc.S.o)
 .bss           0x00000000        0x0 C:\Users\Nandi\AppData\Local\V.Micro\Arduino\Builds\sharpmem\Arduino_STM32_mapleMini/core.a(exc.S.o)
 .data          0x00000000        0x0 C:\Users\Nandi\AppData\Local\V.Micro\Arduino\Builds\sharpmem\Arduino_STM32_mapleMini/core.a(isrs.S.o)
 .bss           0x00000000        0x0 C:\Users\Nandi\AppData\Local\V.Micro\Arduino\Builds\sharpmem\Arduino_STM32_mapleMini/core.a(isrs.S.o)
 .text          0x00000000        0x0 C:\Users\Nandi\AppData\Local\V.Micro\Arduino\Builds\sharpmem\Arduino_STM32_mapleMini/core.a(vector_table.S.o)
 .data          0x00000000        0x0 C:\Users\Nandi\AppData\Local\V.Micro\Arduino\Builds\sharpmem\Arduino_STM32_mapleMini/core.a(vector_table.S.o)
 .bss           0x00000000        0x0 C:\Users\Nandi\AppData\Local\V.Micro\Arduino\Builds\sharpmem\Arduino_STM32_mapleMini/core.a(vector_table.S.o)
 .text          0x00000000        0x0 C:\Users\Nandi\AppData\Local\V.Micro\Arduino\Builds\sharpmem\Arduino_STM32_mapleMini/core.a(dma.c.o)
 .data          0x00000000        0x0 C:\Users\Nandi\AppData\Local\V.Micro\Arduino\Builds\sharpmem\Arduino_STM32_mapleMini/core.a(dma.c.o)
 .bss           0x00000000        0x0 C:\Users\Nandi\AppData\Local\V.Micro\Arduino\Builds\sharpmem\Arduino_STM32_mapleMini/core.a(dma.c.o)
 .text.dma_init
                0x00000000        0x6 C:\Users\Nandi\AppData\Local\V.Micro\Arduino\Builds\sharpmem\Arduino_STM32_mapleMini/core.a(dma.c.o)
 .text._dma_addr_type
                0x00000000       0x28 C:\Users\Nandi\AppData\Local\V.Micro\Arduino\Builds\sharpmem\Arduino_STM32_mapleMini/core.a(dma.c.o)
 .text          0x00000000        0x0 C:\Users\Nandi\AppData\Local\V.Micro\Arduino\Builds\sharpmem\Arduino_STM32_mapleMini/core.a(dma_f1.c.o)
 .data          0x00000000        0x0 C:\Users\Nandi\AppData\Local\V.Micro\Arduino\Builds\sharpmem\Arduino_STM32_mapleMini/core.a(dma_f1.c.o)
 .bss           0x00000000        0x0 C:\Users\Nandi\AppData\Local\V.Micro\Arduino\Builds\sharpmem\Arduino_STM32_mapleMini/core.a(dma_f1.c.o)
 .text.dma_set_priority
                0x00000000       0x18 C:\Users\Nandi\AppData\Local\V.Micro\Arduino\Builds\sharpmem\Arduino_STM32_mapleMini/core.a(dma_f1.c.o)
 .text.dma_set_num_transfers
                0x00000000       0x10 C:\Users\Nandi\AppData\Local\V.Micro\Arduino\Builds\sharpmem\Arduino_STM32_mapleMini/core.a(dma_f1.c.o)
 .text.dma_attach_interrupt
                0x00000000       0x28 C:\Users\Nandi\AppData\Local\V.Micro\Arduino\Builds\sharpmem\Arduino_STM32_mapleMini/core.a(dma_f1.c.o)
 .text.dma_detach_interrupt
                0x00000000       0x1c C:\Users\Nandi\AppData\Local\V.Micro\Arduino\Builds\sharpmem\Arduino_STM32_mapleMini/core.a(dma_f1.c.o)
 .text.dma_enable
                0x00000000       0x18 C:\Users\Nandi\AppData\Local\V.Micro\Arduino\Builds\sharpmem\Arduino_STM32_mapleMini/core.a(dma_f1.c.o)
 .text.dma_disable
                0x00000000       0x18 C:\Users\Nandi\AppData\Local\V.Micro\Arduino\Builds\sharpmem\Arduino_STM32_mapleMini/core.a(dma_f1.c.o)
 .text.dma_tube_cfg
                0x00000000      0x15c C:\Users\Nandi\AppData\Local\V.Micro\Arduino\Builds\sharpmem\Arduino_STM32_mapleMini/core.a(dma_f1.c.o)
 .text.dma_get_irq_cause
                0x00000000       0x3c C:\Users\Nandi\AppData\Local\V.Micro\Arduino\Builds\sharpmem\Arduino_STM32_mapleMini/core.a(dma_f1.c.o)
 .text.dma_set_mem_addr
                0x00000000       0x10 C:\Users\Nandi\AppData\Local\V.Micro\Arduino\Builds\sharpmem\Arduino_STM32_mapleMini/core.a(dma_f1.c.o)
 .text.dma_set_per_addr
                0x00000000       0x10 C:\Users\Nandi\AppData\Local\V.Micro\Arduino\Builds\sharpmem\Arduino_STM32_mapleMini/core.a(dma_f1.c.o)
 .text.dma_setup_transfer
                0x00000000       0x36 C:\Users\Nandi\AppData\Local\V.Micro\Arduino\Builds\sharpmem\Arduino_STM32_mapleMini/core.a(dma_f1.c.o)
 .text          0x00000000        0x0 C:\Users\Nandi\AppData\Local\V.Micro\Arduino\Builds\sharpmem\Arduino_STM32_mapleMini/core.a(rcc.c.o)
 .data          0x00000000        0x0 C:\Users\Nandi\AppData\Local\V.Micro\Arduino\Builds\sharpmem\Arduino_STM32_mapleMini/core.a(rcc.c.o)
 .bss           0x00000000        0x0 C:\Users\Nandi\AppData\Local\V.Micro\Arduino\Builds\sharpmem\Arduino_STM32_mapleMini/core.a(rcc.c.o)
 .text.rcc_is_clk_on
                0x00000000       0x1e C:\Users\Nandi\AppData\Local\V.Micro\Arduino\Builds\sharpmem\Arduino_STM32_mapleMini/core.a(rcc.c.o)
 .text          0x00000000        0x0 C:\Users\Nandi\AppData\Local\V.Micro\Arduino\Builds\sharpmem\Arduino_STM32_mapleMini/core.a(rcc_f1.c.o)
 .data          0x00000000        0x0 C:\Users\Nandi\AppData\Local\V.Micro\Arduino\Builds\sharpmem\Arduino_STM32_mapleMini/core.a(rcc_f1.c.o)
 .bss           0x00000000        0x0 C:\Users\Nandi\AppData\Local\V.Micro\Arduino\Builds\sharpmem\Arduino_STM32_mapleMini/core.a(rcc_f1.c.o)
 .text.rcc_clk_init
                0x00000000       0x3c C:\Users\Nandi\AppData\Local\V.Micro\Arduino\Builds\sharpmem\Arduino_STM32_mapleMini/core.a(rcc_f1.c.o)
 .text          0x00000000        0x0 C:\Users\Nandi\AppData\Local\V.Micro\Arduino\Builds\sharpmem\Arduino_STM32_mapleMini/core.a(spi.c.o)
 .data          0x00000000        0x0 C:\Users\Nandi\AppData\Local\V.Micro\Arduino\Builds\sharpmem\Arduino_STM32_mapleMini/core.a(spi.c.o)
 .bss           0x00000000        0x0 C:\Users\Nandi\AppData\Local\V.Micro\Arduino\Builds\sharpmem\Arduino_STM32_mapleMini/core.a(spi.c.o)
 .text.spi_slave_enable
                0x00000000       0x24 C:\Users\Nandi\AppData\Local\V.Micro\Arduino\Builds\sharpmem\Arduino_STM32_mapleMini/core.a(spi.c.o)
 .text.spi_tx_dma_enable
                0x00000000        0xc C:\Users\Nandi\AppData\Local\V.Micro\Arduino\Builds\sharpmem\Arduino_STM32_mapleMini/core.a(spi.c.o)
 .text.spi_tx_dma_disable
                0x00000000        0xc C:\Users\Nandi\AppData\Local\V.Micro\Arduino\Builds\sharpmem\Arduino_STM32_mapleMini/core.a(spi.c.o)
 .text.spi_rx_dma_enable
                0x00000000        0xc C:\Users\Nandi\AppData\Local\V.Micro\Arduino\Builds\sharpmem\Arduino_STM32_mapleMini/core.a(spi.c.o)
 .text.spi_rx_dma_disable
                0x00000000        0xc C:\Users\Nandi\AppData\Local\V.Micro\Arduino\Builds\sharpmem\Arduino_STM32_mapleMini/core.a(spi.c.o)
 .text          0x00000000        0x0 C:\Users\Nandi\AppData\Local\V.Micro\Arduino\Builds\sharpmem\Arduino_STM32_mapleMini/core.a(spi_f1.c.o)
 .data          0x00000000        0x0 C:\Users\Nandi\AppData\Local\V.Micro\Arduino\Builds\sharpmem\Arduino_STM32_mapleMini/core.a(spi_f1.c.o)
 .bss           0x00000000        0x0 C:\Users\Nandi\AppData\Local\V.Micro\Arduino\Builds\sharpmem\Arduino_STM32_mapleMini/core.a(spi_f1.c.o)
 .text.spi_foreach
                0x00000000       0x1c C:\Users\Nandi\AppData\Local\V.Micro\Arduino\Builds\sharpmem\Arduino_STM32_mapleMini/core.a(spi_f1.c.o)
 .text          0x00000000        0x0 C:\Users\Nandi\AppData\Local\V.Micro\Arduino\Builds\sharpmem\Arduino_STM32_mapleMini/core.a(systick.c.o)
 .data          0x00000000        0x0 C:\Users\Nandi\AppData\Local\V.Micro\Arduino\Builds\sharpmem\Arduino_STM32_mapleMini/core.a(systick.c.o)
 .bss           0x00000000        0x0 C:\Users\Nandi\AppData\Local\V.Micro\Arduino\Builds\sharpmem\Arduino_STM32_mapleMini/core.a(systick.c.o)
 .text.systick_disable
                0x00000000        0xc C:\Users\Nandi\AppData\Local\V.Micro\Arduino\Builds\sharpmem\Arduino_STM32_mapleMini/core.a(systick.c.o)
 .text.systick_enable
                0x00000000        0xc C:\Users\Nandi\AppData\Local\V.Micro\Arduino\Builds\sharpmem\Arduino_STM32_mapleMini/core.a(systick.c.o)
 .text.systick_attach_callback
                0x00000000        0xc C:\Users\Nandi\AppData\Local\V.Micro\Arduino\Builds\sharpmem\Arduino_STM32_mapleMini/core.a(systick.c.o)
 .text          0x00000000        0x0 C:\Users\Nandi\AppData\Local\V.Micro\Arduino\Builds\sharpmem\Arduino_STM32_mapleMini/core.a(timer.c.o)
 .data          0x00000000        0x0 C:\Users\Nandi\AppData\Local\V.Micro\Arduino\Builds\sharpmem\Arduino_STM32_mapleMini/core.a(timer.c.o)
 .bss           0x00000000        0x0 C:\Users\Nandi\AppData\Local\V.Micro\Arduino\Builds\sharpmem\Arduino_STM32_mapleMini/core.a(timer.c.o)
 .text.timer_disable
                0x00000000       0x12 C:\Users\Nandi\AppData\Local\V.Micro\Arduino\Builds\sharpmem\Arduino_STM32_mapleMini/core.a(timer.c.o)
 .text.timer_attach_interrupt
                0x00000000       0xc0 C:\Users\Nandi\AppData\Local\V.Micro\Arduino\Builds\sharpmem\Arduino_STM32_mapleMini/core.a(timer.c.o)
 .rodata.TIMER1
                0x00000000        0x4 C:\Users\Nandi\AppData\Local\V.Micro\Arduino\Builds\sharpmem\Arduino_STM32_mapleMini/core.a(timer.c.o)
 .rodata.TIMER2
                0x00000000        0x4 C:\Users\Nandi\AppData\Local\V.Micro\Arduino\Builds\sharpmem\Arduino_STM32_mapleMini/core.a(timer.c.o)
 .rodata.TIMER3
                0x00000000        0x4 C:\Users\Nandi\AppData\Local\V.Micro\Arduino\Builds\sharpmem\Arduino_STM32_mapleMini/core.a(timer.c.o)
 .rodata.TIMER4
                0x00000000        0x4 C:\Users\Nandi\AppData\Local\V.Micro\Arduino\Builds\sharpmem\Arduino_STM32_mapleMini/core.a(timer.c.o)
 .text          0x00000000        0x0 C:\Users\Nandi\AppData\Local\V.Micro\Arduino\Builds\sharpmem\Arduino_STM32_mapleMini/core.a(util.c.o)
 .data          0x00000000        0x0 C:\Users\Nandi\AppData\Local\V.Micro\Arduino\Builds\sharpmem\Arduino_STM32_mapleMini/core.a(util.c.o)
 .bss           0x00000000        0x0 C:\Users\Nandi\AppData\Local\V.Micro\Arduino\Builds\sharpmem\Arduino_STM32_mapleMini/core.a(util.c.o)
 .text.usart_putc
                0x00000000       0x1c C:\Users\Nandi\AppData\Local\V.Micro\Arduino\Builds\sharpmem\Arduino_STM32_mapleMini/core.a(util.c.o)
 .text.usart_putstr
                0x00000000       0x16 C:\Users\Nandi\AppData\Local\V.Micro\Arduino\Builds\sharpmem\Arduino_STM32_mapleMini/core.a(util.c.o)
 .text._fail    0x00000000       0x64 C:\Users\Nandi\AppData\Local\V.Micro\Arduino\Builds\sharpmem\Arduino_STM32_mapleMini/core.a(util.c.o)
 .text.__assert_func
                0x00000000        0x8 C:\Users\Nandi\AppData\Local\V.Micro\Arduino\Builds\sharpmem\Arduino_STM32_mapleMini/core.a(util.c.o)
 .text.abort    0x00000000       0x1c C:\Users\Nandi\AppData\Local\V.Micro\Arduino\Builds\sharpmem\Arduino_STM32_mapleMini/core.a(util.c.o)
 .rodata.str1.1
                0x00000000       0x42 C:\Users\Nandi\AppData\Local\V.Micro\Arduino\Builds\sharpmem\Arduino_STM32_mapleMini/core.a(util.c.o)
 .text          0x00000000        0x0 C:\Users\Nandi\AppData\Local\V.Micro\Arduino\Builds\sharpmem\Arduino_STM32_mapleMini/core.a(cxxabi-compat.cpp.o)
 .data          0x00000000        0x0 C:\Users\Nandi\AppData\Local\V.Micro\Arduino\Builds\sharpmem\Arduino_STM32_mapleMini/core.a(cxxabi-compat.cpp.o)
 .bss           0x00000000        0x0 C:\Users\Nandi\AppData\Local\V.Micro\Arduino\Builds\sharpmem\Arduino_STM32_mapleMini/core.a(cxxabi-compat.cpp.o)
 .text          0x00000000        0x0 C:\Users\Nandi\AppData\Local\V.Micro\Arduino\Builds\sharpmem\Arduino_STM32_mapleMini/core.a(main.cpp.o)
 .data          0x00000000        0x0 C:\Users\Nandi\AppData\Local\V.Micro\Arduino\Builds\sharpmem\Arduino_STM32_mapleMini/core.a(main.cpp.o)
 .bss           0x00000000        0x0 C:\Users\Nandi\AppData\Local\V.Micro\Arduino\Builds\sharpmem\Arduino_STM32_mapleMini/core.a(main.cpp.o)
 .text          0x00000000        0x0 C:\Users\Nandi\AppData\Local\V.Micro\Arduino\Builds\sharpmem\Arduino_STM32_mapleMini/core.a(Print.cpp.o)
 .data          0x00000000        0x0 C:\Users\Nandi\AppData\Local\V.Micro\Arduino\Builds\sharpmem\Arduino_STM32_mapleMini/core.a(Print.cpp.o)
 .bss           0x00000000        0x0 C:\Users\Nandi\AppData\Local\V.Micro\Arduino\Builds\sharpmem\Arduino_STM32_mapleMini/core.a(Print.cpp.o)
 .text._ZN5Print5printERK6String
                0x00000000       0x10 C:\Users\Nandi\AppData\Local\V.Micro\Arduino\Builds\sharpmem\Arduino_STM32_mapleMini/core.a(Print.cpp.o)
 .text._ZN5Print7printlnERK6String
                0x00000000       0x14 C:\Users\Nandi\AppData\Local\V.Micro\Arduino\Builds\sharpmem\Arduino_STM32_mapleMini/core.a(Print.cpp.o)
 .text._ZN5Print7printlnEc
                0x00000000       0x14 C:\Users\Nandi\AppData\Local\V.Micro\Arduino\Builds\sharpmem\Arduino_STM32_mapleMini/core.a(Print.cpp.o)
 .text._ZN5Print7printlnEii
                0x00000000       0x14 C:\Users\Nandi\AppData\Local\V.Micro\Arduino\Builds\sharpmem\Arduino_STM32_mapleMini/core.a(Print.cpp.o)
 .text._ZN5Print5printEli
                0x00000000       0x12 C:\Users\Nandi\AppData\Local\V.Micro\Arduino\Builds\sharpmem\Arduino_STM32_mapleMini/core.a(Print.cpp.o)
 .text._ZN5Print7printlnEli
                0x00000000       0x1c C:\Users\Nandi\AppData\Local\V.Micro\Arduino\Builds\sharpmem\Arduino_STM32_mapleMini/core.a(Print.cpp.o)
 .text._ZN5Print7printlnExi
                0x00000000       0x1a C:\Users\Nandi\AppData\Local\V.Micro\Arduino\Builds\sharpmem\Arduino_STM32_mapleMini/core.a(Print.cpp.o)
 .text._ZN5Print5printEyi
                0x00000000       0x1c C:\Users\Nandi\AppData\Local\V.Micro\Arduino\Builds\sharpmem\Arduino_STM32_mapleMini/core.a(Print.cpp.o)
 .text._ZN5Print5printEhi
                0x00000000       0x12 C:\Users\Nandi\AppData\Local\V.Micro\Arduino\Builds\sharpmem\Arduino_STM32_mapleMini/core.a(Print.cpp.o)
 .text._ZN5Print7printlnEhi
                0x00000000       0x14 C:\Users\Nandi\AppData\Local\V.Micro\Arduino\Builds\sharpmem\Arduino_STM32_mapleMini/core.a(Print.cpp.o)
 .text._ZN5Print5printEji
                0x00000000       0x12 C:\Users\Nandi\AppData\Local\V.Micro\Arduino\Builds\sharpmem\Arduino_STM32_mapleMini/core.a(Print.cpp.o)
 .text._ZN5Print7printlnEji
                0x00000000       0x14 C:\Users\Nandi\AppData\Local\V.Micro\Arduino\Builds\sharpmem\Arduino_STM32_mapleMini/core.a(Print.cpp.o)
 .text._ZN5Print5printEmi
                0x00000000       0x12 C:\Users\Nandi\AppData\Local\V.Micro\Arduino\Builds\sharpmem\Arduino_STM32_mapleMini/core.a(Print.cpp.o)
 .text._ZN5Print7printlnEmi
                0x00000000       0x1c C:\Users\Nandi\AppData\Local\V.Micro\Arduino\Builds\sharpmem\Arduino_STM32_mapleMini/core.a(Print.cpp.o)
 .text._ZN5Print7printlnEyi
                0x00000000       0x1a C:\Users\Nandi\AppData\Local\V.Micro\Arduino\Builds\sharpmem\Arduino_STM32_mapleMini/core.a(Print.cpp.o)
 .text._ZN5Print10printFloatEdh
                0x00000000      0x158 C:\Users\Nandi\AppData\Local\V.Micro\Arduino\Builds\sharpmem\Arduino_STM32_mapleMini/core.a(Print.cpp.o)
 .text._ZN5Print5printEdi
                0x00000000        0xa C:\Users\Nandi\AppData\Local\V.Micro\Arduino\Builds\sharpmem\Arduino_STM32_mapleMini/core.a(Print.cpp.o)
 .text._ZN5Print7printlnEdi
                0x00000000       0x1c C:\Users\Nandi\AppData\Local\V.Micro\Arduino\Builds\sharpmem\Arduino_STM32_mapleMini/core.a(Print.cpp.o)
 .rodata._ZTV5Print
                0x00000000       0x18 C:\Users\Nandi\AppData\Local\V.Micro\Arduino\Builds\sharpmem\Arduino_STM32_mapleMini/core.a(Print.cpp.o)
 .rodata.str1.1
                0x00000000       0x11 C:\Users\Nandi\AppData\Local\V.Micro\Arduino\Builds\sharpmem\Arduino_STM32_mapleMini/core.a(Print.cpp.o)
 .group         0x00000000        0x8 C:\Users\Nandi\AppData\Local\V.Micro\Arduino\Builds\sharpmem\Arduino_STM32_mapleMini/core.a(usb_serial.cpp.o)
 .text          0x00000000        0x0 C:\Users\Nandi\AppData\Local\V.Micro\Arduino\Builds\sharpmem\Arduino_STM32_mapleMini/core.a(usb_serial.cpp.o)
 .data          0x00000000        0x0 C:\Users\Nandi\AppData\Local\V.Micro\Arduino\Builds\sharpmem\Arduino_STM32_mapleMini/core.a(usb_serial.cpp.o)
 .bss           0x00000000        0x0 C:\Users\Nandi\AppData\Local\V.Micro\Arduino\Builds\sharpmem\Arduino_STM32_mapleMini/core.a(usb_serial.cpp.o)
 .text._ZN9USBSerial5beginEmh
                0x00000000       0x12 C:\Users\Nandi\AppData\Local\V.Micro\Arduino\Builds\sharpmem\Arduino_STM32_mapleMini/core.a(usb_serial.cpp.o)
 .text._ZN9USBSerial3endEv
                0x00000000       0x1c C:\Users\Nandi\AppData\Local\V.Micro\Arduino\Builds\sharpmem\Arduino_STM32_mapleMini/core.a(usb_serial.cpp.o)
 .text._ZN9USBSerial7pendingEv
                0x00000000        0xa C:\Users\Nandi\AppData\Local\V.Micro\Arduino\Builds\sharpmem\Arduino_STM32_mapleMini/core.a(usb_serial.cpp.o)
 .text._ZN9USBSerial6getDTREv
                0x00000000        0x4 C:\Users\Nandi\AppData\Local\V.Micro\Arduino\Builds\sharpmem\Arduino_STM32_mapleMini/core.a(usb_serial.cpp.o)
 .text._ZN9USBSerial6getRTSEv
                0x00000000        0x4 C:\Users\Nandi\AppData\Local\V.Micro\Arduino\Builds\sharpmem\Arduino_STM32_mapleMini/core.a(usb_serial.cpp.o)
 .rodata._ZTV6Stream
                0x00000000       0x28 C:\Users\Nandi\AppData\Local\V.Micro\Arduino\Builds\sharpmem\Arduino_STM32_mapleMini/core.a(usb_serial.cpp.o)
 .text          0x00000000        0x0 C:\Users\Nandi\AppData\Local\V.Micro\Arduino\Builds\sharpmem\Arduino_STM32_mapleMini/core.a(wirish_digital.cpp.o)
 .data          0x00000000        0x0 C:\Users\Nandi\AppData\Local\V.Micro\Arduino\Builds\sharpmem\Arduino_STM32_mapleMini/core.a(wirish_digital.cpp.o)
 .bss           0x00000000        0x0 C:\Users\Nandi\AppData\Local\V.Micro\Arduino\Builds\sharpmem\Arduino_STM32_mapleMini/core.a(wirish_digital.cpp.o)
 .text._Z11digitalReadh
                0x00000000       0x2c C:\Users\Nandi\AppData\Local\V.Micro\Arduino\Builds\sharpmem\Arduino_STM32_mapleMini/core.a(wirish_digital.cpp.o)
 .text          0x00000000        0x0 C:\Users\Nandi\AppData\Local\V.Micro\Arduino\Builds\sharpmem\Arduino_STM32_mapleMini/core.a(wirish_time.cpp.o)
 .data          0x00000000        0x0 C:\Users\Nandi\AppData\Local\V.Micro\Arduino\Builds\sharpmem\Arduino_STM32_mapleMini/core.a(wirish_time.cpp.o)
 .bss           0x00000000        0x0 C:\Users\Nandi\AppData\Local\V.Micro\Arduino\Builds\sharpmem\Arduino_STM32_mapleMini/core.a(wirish_time.cpp.o)
 .text._Z5delaym
                0x00000000       0x18 C:\Users\Nandi\AppData\Local\V.Micro\Arduino\Builds\sharpmem\Arduino_STM32_mapleMini/core.a(wirish_time.cpp.o)
 .text          0x00000000        0x0 C:\Users\Nandi\AppData\Local\V.Micro\Arduino\Builds\sharpmem\Arduino_STM32_mapleMini/core.a(wirish_digital_f1.cpp.o)
 .data          0x00000000        0x0 C:\Users\Nandi\AppData\Local\V.Micro\Arduino\Builds\sharpmem\Arduino_STM32_mapleMini/core.a(wirish_digital_f1.cpp.o)
 .bss           0x00000000        0x0 C:\Users\Nandi\AppData\Local\V.Micro\Arduino\Builds\sharpmem\Arduino_STM32_mapleMini/core.a(wirish_digital_f1.cpp.o)
 .data          0x00000000        0x0 C:\Users\Nandi\AppData\Local\V.Micro\Arduino\Builds\sharpmem\Arduino_STM32_mapleMini/core.a(start.S.o)
 .bss           0x00000000        0x0 C:\Users\Nandi\AppData\Local\V.Micro\Arduino\Builds\sharpmem\Arduino_STM32_mapleMini/core.a(start.S.o)
 .ARM.extab     0x00000000        0x0 C:\Users\Nandi\AppData\Local\V.Micro\Arduino\Builds\sharpmem\Arduino_STM32_mapleMini/core.a(start.S.o)
 .text          0x00000000        0x0 C:\Users\Nandi\AppData\Local\V.Micro\Arduino\Builds\sharpmem\Arduino_STM32_mapleMini/core.a(start_c.c.o)
 .data          0x00000000        0x0 C:\Users\Nandi\AppData\Local\V.Micro\Arduino\Builds\sharpmem\Arduino_STM32_mapleMini/core.a(start_c.c.o)
 .bss           0x00000000        0x0 C:\Users\Nandi\AppData\Local\V.Micro\Arduino\Builds\sharpmem\Arduino_STM32_mapleMini/core.a(start_c.c.o)
 .text          0x00000000        0x0 C:\Users\Nandi\AppData\Local\V.Micro\Arduino\Builds\sharpmem\Arduino_STM32_mapleMini/core.a(board.cpp.o)
 .data          0x00000000        0x0 C:\Users\Nandi\AppData\Local\V.Micro\Arduino\Builds\sharpmem\Arduino_STM32_mapleMini/core.a(board.cpp.o)
 .bss           0x00000000        0x0 C:\Users\Nandi\AppData\Local\V.Micro\Arduino\Builds\sharpmem\Arduino_STM32_mapleMini/core.a(board.cpp.o)
 .USER_FLASH    0x00000000       0x19 C:\Users\Nandi\AppData\Local\V.Micro\Arduino\Builds\sharpmem\Arduino_STM32_mapleMini/core.a(board.cpp.o)
 .text          0x00000000        0x0 C:\Users\Nandi\AppData\Local\V.Micro\Arduino\Builds\sharpmem\Arduino_STM32_mapleMini/core.a(boards.cpp.o)
 .data          0x00000000        0x0 C:\Users\Nandi\AppData\Local\V.Micro\Arduino\Builds\sharpmem\Arduino_STM32_mapleMini/core.a(boards.cpp.o)
 .bss           0x00000000        0x0 C:\Users\Nandi\AppData\Local\V.Micro\Arduino\Builds\sharpmem\Arduino_STM32_mapleMini/core.a(boards.cpp.o)
 .text._Z9boardInitv
                0x00000000        0x2 C:\Users\Nandi\AppData\Local\V.Micro\Arduino\Builds\sharpmem\Arduino_STM32_mapleMini/core.a(boards.cpp.o)
 .text._Z12boardUsesPinh
                0x00000000       0x1c C:\Users\Nandi\AppData\Local\V.Micro\Arduino\Builds\sharpmem\Arduino_STM32_mapleMini/core.a(boards.cpp.o)
 .text          0x00000000        0x0 C:\Users\Nandi\AppData\Local\V.Micro\Arduino\Builds\sharpmem\Arduino_STM32_mapleMini/core.a(boards_setup.cpp.o)
 .data          0x00000000        0x0 C:\Users\Nandi\AppData\Local\V.Micro\Arduino\Builds\sharpmem\Arduino_STM32_mapleMini/core.a(boards_setup.cpp.o)
 .bss           0x00000000        0x0 C:\Users\Nandi\AppData\Local\V.Micro\Arduino\Builds\sharpmem\Arduino_STM32_mapleMini/core.a(boards_setup.cpp.o)
 .text          0x00000000        0x0 C:\Users\Nandi\AppData\Local\V.Micro\Arduino\Builds\sharpmem\Arduino_STM32_mapleMini/core.a(adc.c.o)
 .data          0x00000000        0x0 C:\Users\Nandi\AppData\Local\V.Micro\Arduino\Builds\sharpmem\Arduino_STM32_mapleMini/core.a(adc.c.o)
 .bss           0x00000000        0x0 C:\Users\Nandi\AppData\Local\V.Micro\Arduino\Builds\sharpmem\Arduino_STM32_mapleMini/core.a(adc.c.o)
 .text.adc_read
                0x00000000       0x20 C:\Users\Nandi\AppData\Local\V.Micro\Arduino\Builds\sharpmem\Arduino_STM32_mapleMini/core.a(adc.c.o)
 .text          0x00000000        0x0 C:\Users\Nandi\AppData\Local\V.Micro\Arduino\Builds\sharpmem\Arduino_STM32_mapleMini/core.a(adc_f1.c.o)
 .data          0x00000000        0x0 C:\Users\Nandi\AppData\Local\V.Micro\Arduino\Builds\sharpmem\Arduino_STM32_mapleMini/core.a(adc_f1.c.o)
 .bss           0x00000000        0x0 C:\Users\Nandi\AppData\Local\V.Micro\Arduino\Builds\sharpmem\Arduino_STM32_mapleMini/core.a(adc_f1.c.o)
 .text.adc_config_gpio
                0x00000000        0xa C:\Users\Nandi\AppData\Local\V.Micro\Arduino\Builds\sharpmem\Arduino_STM32_mapleMini/core.a(adc_f1.c.o)
 .text          0x00000000        0x0 C:\Users\Nandi\AppData\Local\V.Micro\Arduino\Builds\sharpmem\Arduino_STM32_mapleMini/core.a(flash.c.o)
 .data          0x00000000        0x0 C:\Users\Nandi\AppData\Local\V.Micro\Arduino\Builds\sharpmem\Arduino_STM32_mapleMini/core.a(flash.c.o)
 .bss           0x00000000        0x0 C:\Users\Nandi\AppData\Local\V.Micro\Arduino\Builds\sharpmem\Arduino_STM32_mapleMini/core.a(flash.c.o)
 .text          0x00000000        0x0 C:\Users\Nandi\AppData\Local\V.Micro\Arduino\Builds\sharpmem\Arduino_STM32_mapleMini/core.a(gpio_f1.c.o)
 .data          0x00000000        0x0 C:\Users\Nandi\AppData\Local\V.Micro\Arduino\Builds\sharpmem\Arduino_STM32_mapleMini/core.a(gpio_f1.c.o)
 .bss           0x00000000        0x0 C:\Users\Nandi\AppData\Local\V.Micro\Arduino\Builds\sharpmem\Arduino_STM32_mapleMini/core.a(gpio_f1.c.o)
 .text.gpio_get_mode
                0x00000000       0x2e C:\Users\Nandi\AppData\Local\V.Micro\Arduino\Builds\sharpmem\Arduino_STM32_mapleMini/core.a(gpio_f1.c.o)
 .text.afio_remap
                0x00000000       0x20 C:\Users\Nandi\AppData\Local\V.Micro\Arduino\Builds\sharpmem\Arduino_STM32_mapleMini/core.a(gpio_f1.c.o)
 .rodata.GPIOA  0x00000000        0x4 C:\Users\Nandi\AppData\Local\V.Micro\Arduino\Builds\sharpmem\Arduino_STM32_mapleMini/core.a(gpio_f1.c.o)
 .rodata.GPIOC  0x00000000        0x4 C:\Users\Nandi\AppData\Local\V.Micro\Arduino\Builds\sharpmem\Arduino_STM32_mapleMini/core.a(gpio_f1.c.o)
 .rodata.GPIOD  0x00000000        0x4 C:\Users\Nandi\AppData\Local\V.Micro\Arduino\Builds\sharpmem\Arduino_STM32_mapleMini/core.a(gpio_f1.c.o)
 .text          0x00000000        0x0 C:\Users\Nandi\AppData\Local\V.Micro\Arduino\Builds\sharpmem\Arduino_STM32_mapleMini/core.a(iwdg.c.o)
 .data          0x00000000        0x0 C:\Users\Nandi\AppData\Local\V.Micro\Arduino\Builds\sharpmem\Arduino_STM32_mapleMini/core.a(iwdg.c.o)
 .bss           0x00000000        0x0 C:\Users\Nandi\AppData\Local\V.Micro\Arduino\Builds\sharpmem\Arduino_STM32_mapleMini/core.a(iwdg.c.o)
 .text.iwdg_feed
                0x00000000       0x10 C:\Users\Nandi\AppData\Local\V.Micro\Arduino\Builds\sharpmem\Arduino_STM32_mapleMini/core.a(iwdg.c.o)
 .text          0x00000000        0x0 C:\Users\Nandi\AppData\Local\V.Micro\Arduino\Builds\sharpmem\Arduino_STM32_mapleMini/core.a(nvic.c.o)
 .data          0x00000000        0x0 C:\Users\Nandi\AppData\Local\V.Micro\Arduino\Builds\sharpmem\Arduino_STM32_mapleMini/core.a(nvic.c.o)
 .bss           0x00000000        0x0 C:\Users\Nandi\AppData\Local\V.Micro\Arduino\Builds\sharpmem\Arduino_STM32_mapleMini/core.a(nvic.c.o)
 .text.nvic_set_vector_table
                0x00000000       0x14 C:\Users\Nandi\AppData\Local\V.Micro\Arduino\Builds\sharpmem\Arduino_STM32_mapleMini/core.a(nvic.c.o)
 .text          0x00000000        0x0 C:\Users\Nandi\AppData\Local\V.Micro\Arduino\Builds\sharpmem\Arduino_STM32_mapleMini/core.a(usart.c.o)
 .data          0x00000000        0x0 C:\Users\Nandi\AppData\Local\V.Micro\Arduino\Builds\sharpmem\Arduino_STM32_mapleMini/core.a(usart.c.o)
 .bss           0x00000000        0x0 C:\Users\Nandi\AppData\Local\V.Micro\Arduino\Builds\sharpmem\Arduino_STM32_mapleMini/core.a(usart.c.o)
 .text.usart_init
                0x00000000       0x40 C:\Users\Nandi\AppData\Local\V.Micro\Arduino\Builds\sharpmem\Arduino_STM32_mapleMini/core.a(usart.c.o)
 .text.usart_enable
                0x00000000       0x14 C:\Users\Nandi\AppData\Local\V.Micro\Arduino\Builds\sharpmem\Arduino_STM32_mapleMini/core.a(usart.c.o)
 .text.usart_disable
                0x00000000       0x1e C:\Users\Nandi\AppData\Local\V.Micro\Arduino\Builds\sharpmem\Arduino_STM32_mapleMini/core.a(usart.c.o)
 .text.usart_rx
                0x00000000       0x4e C:\Users\Nandi\AppData\Local\V.Micro\Arduino\Builds\sharpmem\Arduino_STM32_mapleMini/core.a(usart.c.o)
 .text.usart_putudec
                0x00000000       0x44 C:\Users\Nandi\AppData\Local\V.Micro\Arduino\Builds\sharpmem\Arduino_STM32_mapleMini/core.a(usart.c.o)
 .text          0x00000000        0x0 C:\Users\Nandi\AppData\Local\V.Micro\Arduino\Builds\sharpmem\Arduino_STM32_mapleMini/core.a(usart_f1.c.o)
 .data          0x00000000        0x0 C:\Users\Nandi\AppData\Local\V.Micro\Arduino\Builds\sharpmem\Arduino_STM32_mapleMini/core.a(usart_f1.c.o)
 .bss           0x00000000        0x0 C:\Users\Nandi\AppData\Local\V.Micro\Arduino\Builds\sharpmem\Arduino_STM32_mapleMini/core.a(usart_f1.c.o)
 .text.usart_config_gpios_async
                0x00000000       0x42 C:\Users\Nandi\AppData\Local\V.Micro\Arduino\Builds\sharpmem\Arduino_STM32_mapleMini/core.a(usart_f1.c.o)
 .text.usart_set_baud_rate
                0x00000000       0x3c C:\Users\Nandi\AppData\Local\V.Micro\Arduino\Builds\sharpmem\Arduino_STM32_mapleMini/core.a(usart_f1.c.o)
 .text.usart_foreach
                0x00000000       0x24 C:\Users\Nandi\AppData\Local\V.Micro\Arduino\Builds\sharpmem\Arduino_STM32_mapleMini/core.a(usart_f1.c.o)
 .text          0x00000000        0x0 C:\Users\Nandi\AppData\Local\V.Micro\Arduino\Builds\sharpmem\Arduino_STM32_mapleMini/core.a(usart_private.c.o)
 .data          0x00000000        0x0 C:\Users\Nandi\AppData\Local\V.Micro\Arduino\Builds\sharpmem\Arduino_STM32_mapleMini/core.a(usart_private.c.o)
 .bss           0x00000000        0x0 C:\Users\Nandi\AppData\Local\V.Micro\Arduino\Builds\sharpmem\Arduino_STM32_mapleMini/core.a(usart_private.c.o)
 .text._usart_clock_freq
                0x00000000       0x24 C:\Users\Nandi\AppData\Local\V.Micro\Arduino\Builds\sharpmem\Arduino_STM32_mapleMini/core.a(usart_private.c.o)
 .text          0x00000000        0x0 C:\Users\Nandi\AppData\Local\V.Micro\Arduino\Builds\sharpmem\Arduino_STM32_mapleMini/core.a(usb.c.o)
 .data          0x00000000        0x0 C:\Users\Nandi\AppData\Local\V.Micro\Arduino\Builds\sharpmem\Arduino_STM32_mapleMini/core.a(usb.c.o)
 .bss           0x00000000        0x0 C:\Users\Nandi\AppData\Local\V.Micro\Arduino\Builds\sharpmem\Arduino_STM32_mapleMini/core.a(usb.c.o)
 .text          0x00000000        0x0 C:\Users\Nandi\AppData\Local\V.Micro\Arduino\Builds\sharpmem\Arduino_STM32_mapleMini/core.a(usb_cdcacm.c.o)
 .data          0x00000000        0x0 C:\Users\Nandi\AppData\Local\V.Micro\Arduino\Builds\sharpmem\Arduino_STM32_mapleMini/core.a(usb_cdcacm.c.o)
 .bss           0x00000000        0x0 C:\Users\Nandi\AppData\Local\V.Micro\Arduino\Builds\sharpmem\Arduino_STM32_mapleMini/core.a(usb_cdcacm.c.o)
 .text.usb_cdcacm_disable
                0x00000000       0x1c C:\Users\Nandi\AppData\Local\V.Micro\Arduino\Builds\sharpmem\Arduino_STM32_mapleMini/core.a(usb_cdcacm.c.o)
 .text.usb_cdcacm_putc
                0x00000000       0x1a C:\Users\Nandi\AppData\Local\V.Micro\Arduino\Builds\sharpmem\Arduino_STM32_mapleMini/core.a(usb_cdcacm.c.o)
 .text.usb_cdcacm_get_pending
                0x00000000        0xc C:\Users\Nandi\AppData\Local\V.Micro\Arduino\Builds\sharpmem\Arduino_STM32_mapleMini/core.a(usb_cdcacm.c.o)
 .text.usb_cdcacm_peek_char
                0x00000000       0x24 C:\Users\Nandi\AppData\Local\V.Micro\Arduino\Builds\sharpmem\Arduino_STM32_mapleMini/core.a(usb_cdcacm.c.o)
 .text.usb_cdcacm_get_rts
                0x00000000       0x10 C:\Users\Nandi\AppData\Local\V.Micro\Arduino\Builds\sharpmem\Arduino_STM32_mapleMini/core.a(usb_cdcacm.c.o)
 .text.usb_cdcacm_get_line_coding
                0x00000000       0x18 C:\Users\Nandi\AppData\Local\V.Micro\Arduino\Builds\sharpmem\Arduino_STM32_mapleMini/core.a(usb_cdcacm.c.o)
 .text.usb_cdcacm_get_stop_bits
                0x00000000        0xc C:\Users\Nandi\AppData\Local\V.Micro\Arduino\Builds\sharpmem\Arduino_STM32_mapleMini/core.a(usb_cdcacm.c.o)
 .text.usb_cdcacm_get_parity
                0x00000000        0xc C:\Users\Nandi\AppData\Local\V.Micro\Arduino\Builds\sharpmem\Arduino_STM32_mapleMini/core.a(usb_cdcacm.c.o)
 .text.usb_cdcacm_get_n_data_bits
                0x00000000        0xc C:\Users\Nandi\AppData\Local\V.Micro\Arduino\Builds\sharpmem\Arduino_STM32_mapleMini/core.a(usb_cdcacm.c.o)
 .text          0x00000000        0x0 C:\Users\Nandi\AppData\Local\V.Micro\Arduino\Builds\sharpmem\Arduino_STM32_mapleMini/core.a(usb_reg_map.c.o)
 .data          0x00000000        0x0 C:\Users\Nandi\AppData\Local\V.Micro\Arduino\Builds\sharpmem\Arduino_STM32_mapleMini/core.a(usb_reg_map.c.o)
 .bss           0x00000000        0x0 C:\Users\Nandi\AppData\Local\V.Micro\Arduino\Builds\sharpmem\Arduino_STM32_mapleMini/core.a(usb_reg_map.c.o)
 .text.usb_set_ep_rx_buf0_count
                0x00000000       0x1c C:\Users\Nandi\AppData\Local\V.Micro\Arduino\Builds\sharpmem\Arduino_STM32_mapleMini/core.a(usb_reg_map.c.o)
 .text          0x00000000        0x0 C:\Users\Nandi\AppData\Local\V.Micro\Arduino\Builds\sharpmem\Arduino_STM32_mapleMini/core.a(usb_core.c.o)
 .data          0x00000000        0x0 C:\Users\Nandi\AppData\Local\V.Micro\Arduino\Builds\sharpmem\Arduino_STM32_mapleMini/core.a(usb_core.c.o)
 .bss           0x00000000        0x0 C:\Users\Nandi\AppData\Local\V.Micro\Arduino\Builds\sharpmem\Arduino_STM32_mapleMini/core.a(usb_core.c.o)
 .text          0x00000000        0x0 C:\Users\Nandi\AppData\Local\V.Micro\Arduino\Builds\sharpmem\Arduino_STM32_mapleMini/core.a(usb_init.c.o)
 .data          0x00000000        0x0 C:\Users\Nandi\AppData\Local\V.Micro\Arduino\Builds\sharpmem\Arduino_STM32_mapleMini/core.a(usb_init.c.o)
 .bss           0x00000000        0x0 C:\Users\Nandi\AppData\Local\V.Micro\Arduino\Builds\sharpmem\Arduino_STM32_mapleMini/core.a(usb_init.c.o)
 .text.USB_Init
                0x00000000       0x38 C:\Users\Nandi\AppData\Local\V.Micro\Arduino\Builds\sharpmem\Arduino_STM32_mapleMini/core.a(usb_init.c.o)
 .text          0x00000000        0x0 C:\Users\Nandi\AppData\Local\V.Micro\Arduino\Builds\sharpmem\Arduino_STM32_mapleMini/core.a(usb_mem.c.o)
 .data          0x00000000        0x0 C:\Users\Nandi\AppData\Local\V.Micro\Arduino\Builds\sharpmem\Arduino_STM32_mapleMini/core.a(usb_mem.c.o)
 .bss           0x00000000        0x0 C:\Users\Nandi\AppData\Local\V.Micro\Arduino\Builds\sharpmem\Arduino_STM32_mapleMini/core.a(usb_mem.c.o)
 .text          0x00000000        0x0 C:\Users\Nandi\AppData\Local\V.Micro\Arduino\Builds\sharpmem\Arduino_STM32_mapleMini/core.a(usb_regs.c.o)
 .data          0x00000000        0x0 C:\Users\Nandi\AppData\Local\V.Micro\Arduino\Builds\sharpmem\Arduino_STM32_mapleMini/core.a(usb_regs.c.o)
 .bss           0x00000000        0x0 C:\Users\Nandi\AppData\Local\V.Micro\Arduino\Builds\sharpmem\Arduino_STM32_mapleMini/core.a(usb_regs.c.o)
 .text.SetCNTR  0x00000000        0xc C:\Users\Nandi\AppData\Local\V.Micro\Arduino\Builds\sharpmem\Arduino_STM32_mapleMini/core.a(usb_regs.c.o)
 .text.GetCNTR  0x00000000        0xc C:\Users\Nandi\AppData\Local\V.Micro\Arduino\Builds\sharpmem\Arduino_STM32_mapleMini/core.a(usb_regs.c.o)
 .text.SetISTR  0x00000000        0xc C:\Users\Nandi\AppData\Local\V.Micro\Arduino\Builds\sharpmem\Arduino_STM32_mapleMini/core.a(usb_regs.c.o)
 .text.GetISTR  0x00000000        0xc C:\Users\Nandi\AppData\Local\V.Micro\Arduino\Builds\sharpmem\Arduino_STM32_mapleMini/core.a(usb_regs.c.o)
 .text.GetFNR   0x00000000        0xc C:\Users\Nandi\AppData\Local\V.Micro\Arduino\Builds\sharpmem\Arduino_STM32_mapleMini/core.a(usb_regs.c.o)
 .text.SetDADDR
                0x00000000        0xc C:\Users\Nandi\AppData\Local\V.Micro\Arduino\Builds\sharpmem\Arduino_STM32_mapleMini/core.a(usb_regs.c.o)
 .text.GetDADDR
                0x00000000        0xc C:\Users\Nandi\AppData\Local\V.Micro\Arduino\Builds\sharpmem\Arduino_STM32_mapleMini/core.a(usb_regs.c.o)
 .text.SetBTABLE
                0x00000000       0x10 C:\Users\Nandi\AppData\Local\V.Micro\Arduino\Builds\sharpmem\Arduino_STM32_mapleMini/core.a(usb_regs.c.o)
 .text.GetBTABLE
                0x00000000        0xc C:\Users\Nandi\AppData\Local\V.Micro\Arduino\Builds\sharpmem\Arduino_STM32_mapleMini/core.a(usb_regs.c.o)
 .text.SetENDPOINT
                0x00000000        0xe C:\Users\Nandi\AppData\Local\V.Micro\Arduino\Builds\sharpmem\Arduino_STM32_mapleMini/core.a(usb_regs.c.o)
 .text.GetENDPOINT
                0x00000000       0x10 C:\Users\Nandi\AppData\Local\V.Micro\Arduino\Builds\sharpmem\Arduino_STM32_mapleMini/core.a(usb_regs.c.o)
 .text.SetEPType
                0x00000000       0x1c C:\Users\Nandi\AppData\Local\V.Micro\Arduino\Builds\sharpmem\Arduino_STM32_mapleMini/core.a(usb_regs.c.o)
 .text.GetEPType
                0x00000000       0x12 C:\Users\Nandi\AppData\Local\V.Micro\Arduino\Builds\sharpmem\Arduino_STM32_mapleMini/core.a(usb_regs.c.o)
 .text.SetEPRxStatus
                0x00000000       0x2a C:\Users\Nandi\AppData\Local\V.Micro\Arduino\Builds\sharpmem\Arduino_STM32_mapleMini/core.a(usb_regs.c.o)
 .text.SetDouBleBuffEPStall
                0x00000000       0x24 C:\Users\Nandi\AppData\Local\V.Micro\Arduino\Builds\sharpmem\Arduino_STM32_mapleMini/core.a(usb_regs.c.o)
 .text.GetEPTxStatus
                0x00000000       0x12 C:\Users\Nandi\AppData\Local\V.Micro\Arduino\Builds\sharpmem\Arduino_STM32_mapleMini/core.a(usb_regs.c.o)
 .text.GetEPRxStatus
                0x00000000       0x12 C:\Users\Nandi\AppData\Local\V.Micro\Arduino\Builds\sharpmem\Arduino_STM32_mapleMini/core.a(usb_regs.c.o)
 .text.SetEPTxValid
                0x00000000       0x1e C:\Users\Nandi\AppData\Local\V.Micro\Arduino\Builds\sharpmem\Arduino_STM32_mapleMini/core.a(usb_regs.c.o)
 .text.SetEPRxValid
                0x00000000       0x1e C:\Users\Nandi\AppData\Local\V.Micro\Arduino\Builds\sharpmem\Arduino_STM32_mapleMini/core.a(usb_regs.c.o)
 .text.SetEP_KIND
                0x00000000       0x1e C:\Users\Nandi\AppData\Local\V.Micro\Arduino\Builds\sharpmem\Arduino_STM32_mapleMini/core.a(usb_regs.c.o)
 .text.ClearEP_KIND
                0x00000000       0x1c C:\Users\Nandi\AppData\Local\V.Micro\Arduino\Builds\sharpmem\Arduino_STM32_mapleMini/core.a(usb_regs.c.o)
 .text.Clear_Status_Out
                0x00000000       0x1c C:\Users\Nandi\AppData\Local\V.Micro\Arduino\Builds\sharpmem\Arduino_STM32_mapleMini/core.a(usb_regs.c.o)
 .text.Set_Status_Out
                0x00000000       0x1e C:\Users\Nandi\AppData\Local\V.Micro\Arduino\Builds\sharpmem\Arduino_STM32_mapleMini/core.a(usb_regs.c.o)
 .text.SetEPDoubleBuff
                0x00000000       0x1e C:\Users\Nandi\AppData\Local\V.Micro\Arduino\Builds\sharpmem\Arduino_STM32_mapleMini/core.a(usb_regs.c.o)
 .text.ClearEPDoubleBuff
                0x00000000       0x1c C:\Users\Nandi\AppData\Local\V.Micro\Arduino\Builds\sharpmem\Arduino_STM32_mapleMini/core.a(usb_regs.c.o)
 .text.GetTxStallStatus
                0x00000000       0x1a C:\Users\Nandi\AppData\Local\V.Micro\Arduino\Builds\sharpmem\Arduino_STM32_mapleMini/core.a(usb_regs.c.o)
 .text.GetRxStallStatus
                0x00000000       0x1a C:\Users\Nandi\AppData\Local\V.Micro\Arduino\Builds\sharpmem\Arduino_STM32_mapleMini/core.a(usb_regs.c.o)
 .text.ClearEP_CTR_RX
                0x00000000       0x18 C:\Users\Nandi\AppData\Local\V.Micro\Arduino\Builds\sharpmem\Arduino_STM32_mapleMini/core.a(usb_regs.c.o)
 .text.ClearEP_CTR_TX
                0x00000000       0x1c C:\Users\Nandi\AppData\Local\V.Micro\Arduino\Builds\sharpmem\Arduino_STM32_mapleMini/core.a(usb_regs.c.o)
 .text.ToggleDTOG_RX
                0x00000000       0x20 C:\Users\Nandi\AppData\Local\V.Micro\Arduino\Builds\sharpmem\Arduino_STM32_mapleMini/core.a(usb_regs.c.o)
 .text.ToggleDTOG_TX
                0x00000000       0x20 C:\Users\Nandi\AppData\Local\V.Micro\Arduino\Builds\sharpmem\Arduino_STM32_mapleMini/core.a(usb_regs.c.o)
 .text.SetEPAddress
                0x00000000       0x1e C:\Users\Nandi\AppData\Local\V.Micro\Arduino\Builds\sharpmem\Arduino_STM32_mapleMini/core.a(usb_regs.c.o)
 .text.GetEPAddress
                0x00000000       0x12 C:\Users\Nandi\AppData\Local\V.Micro\Arduino\Builds\sharpmem\Arduino_STM32_mapleMini/core.a(usb_regs.c.o)
 .text.SetEPTxAddr
                0x00000000       0x20 C:\Users\Nandi\AppData\Local\V.Micro\Arduino\Builds\sharpmem\Arduino_STM32_mapleMini/core.a(usb_regs.c.o)
 .text.SetEPRxAddr
                0x00000000       0x20 C:\Users\Nandi\AppData\Local\V.Micro\Arduino\Builds\sharpmem\Arduino_STM32_mapleMini/core.a(usb_regs.c.o)
 .text.SetEPCountRxReg
                0x00000000       0x26 C:\Users\Nandi\AppData\Local\V.Micro\Arduino\Builds\sharpmem\Arduino_STM32_mapleMini/core.a(usb_regs.c.o)
 .text.GetEPTxCount
                0x00000000       0x20 C:\Users\Nandi\AppData\Local\V.Micro\Arduino\Builds\sharpmem\Arduino_STM32_mapleMini/core.a(usb_regs.c.o)
 .text.GetEPRxCount
                0x00000000       0x20 C:\Users\Nandi\AppData\Local\V.Micro\Arduino\Builds\sharpmem\Arduino_STM32_mapleMini/core.a(usb_regs.c.o)
 .text.SetEPDblBuffAddr
                0x00000000       0x38 C:\Users\Nandi\AppData\Local\V.Micro\Arduino\Builds\sharpmem\Arduino_STM32_mapleMini/core.a(usb_regs.c.o)
 .text.SetEPDblBuf0Addr
                0x00000000       0x20 C:\Users\Nandi\AppData\Local\V.Micro\Arduino\Builds\sharpmem\Arduino_STM32_mapleMini/core.a(usb_regs.c.o)
 .text.SetEPDblBuf1Addr
                0x00000000       0x20 C:\Users\Nandi\AppData\Local\V.Micro\Arduino\Builds\sharpmem\Arduino_STM32_mapleMini/core.a(usb_regs.c.o)
 .text.GetEPDblBuf0Addr
                0x00000000       0x1c C:\Users\Nandi\AppData\Local\V.Micro\Arduino\Builds\sharpmem\Arduino_STM32_mapleMini/core.a(usb_regs.c.o)
 .text.GetEPDblBuf1Addr
                0x00000000       0x1c C:\Users\Nandi\AppData\Local\V.Micro\Arduino\Builds\sharpmem\Arduino_STM32_mapleMini/core.a(usb_regs.c.o)
 .text.SetEPDblBuffCount
                0x00000000       0xa8 C:\Users\Nandi\AppData\Local\V.Micro\Arduino\Builds\sharpmem\Arduino_STM32_mapleMini/core.a(usb_regs.c.o)
 .text.SetEPDblBuf0Count
                0x00000000       0x5c C:\Users\Nandi\AppData\Local\V.Micro\Arduino\Builds\sharpmem\Arduino_STM32_mapleMini/core.a(usb_regs.c.o)
 .text.SetEPDblBuf1Count
                0x00000000       0x5c C:\Users\Nandi\AppData\Local\V.Micro\Arduino\Builds\sharpmem\Arduino_STM32_mapleMini/core.a(usb_regs.c.o)
 .text.GetEPDblBuf0Count
                0x00000000       0x20 C:\Users\Nandi\AppData\Local\V.Micro\Arduino\Builds\sharpmem\Arduino_STM32_mapleMini/core.a(usb_regs.c.o)
 .text.GetEPDblBuf1Count
                0x00000000       0x20 C:\Users\Nandi\AppData\Local\V.Micro\Arduino\Builds\sharpmem\Arduino_STM32_mapleMini/core.a(usb_regs.c.o)
 .text.GetEPDblBufDir
                0x00000000       0x44 C:\Users\Nandi\AppData\Local\V.Micro\Arduino\Builds\sharpmem\Arduino_STM32_mapleMini/core.a(usb_regs.c.o)
 .text.FreeUserBuffer
                0x00000000       0x3a C:\Users\Nandi\AppData\Local\V.Micro\Arduino\Builds\sharpmem\Arduino_STM32_mapleMini/core.a(usb_regs.c.o)
 .text.ToWord   0x00000000        0x6 C:\Users\Nandi\AppData\Local\V.Micro\Arduino\Builds\sharpmem\Arduino_STM32_mapleMini/core.a(usb_regs.c.o)
 .group         0x00000000        0x8 C:\Users\Nandi\AppData\Local\V.Micro\Arduino\Builds\sharpmem\Arduino_STM32_mapleMini/core.a(HardwareSerial.cpp.o)
 .text          0x00000000        0x0 C:\Users\Nandi\AppData\Local\V.Micro\Arduino\Builds\sharpmem\Arduino_STM32_mapleMini/core.a(HardwareSerial.cpp.o)
 .data          0x00000000        0x0 C:\Users\Nandi\AppData\Local\V.Micro\Arduino\Builds\sharpmem\Arduino_STM32_mapleMini/core.a(HardwareSerial.cpp.o)
 .bss           0x00000000        0x0 C:\Users\Nandi\AppData\Local\V.Micro\Arduino\Builds\sharpmem\Arduino_STM32_mapleMini/core.a(HardwareSerial.cpp.o)
 .text._ZN14HardwareSerial5beginEmh
                0x00000000       0x78 C:\Users\Nandi\AppData\Local\V.Micro\Arduino\Builds\sharpmem\Arduino_STM32_mapleMini/core.a(HardwareSerial.cpp.o)
 .text._ZN14HardwareSerial5beginEm
                0x00000000        0x6 C:\Users\Nandi\AppData\Local\V.Micro\Arduino\Builds\sharpmem\Arduino_STM32_mapleMini/core.a(HardwareSerial.cpp.o)
 .text._ZN14HardwareSerial3endEv
                0x00000000        0x6 C:\Users\Nandi\AppData\Local\V.Micro\Arduino\Builds\sharpmem\Arduino_STM32_mapleMini/core.a(HardwareSerial.cpp.o)
 .text._ZN14HardwareSerial17availableForWriteEv
                0x00000000        0x4 C:\Users\Nandi\AppData\Local\V.Micro\Arduino\Builds\sharpmem\Arduino_STM32_mapleMini/core.a(HardwareSerial.cpp.o)
 .rodata._ZTV6Stream
                0x00000000       0x28 C:\Users\Nandi\AppData\Local\V.Micro\Arduino\Builds\sharpmem\Arduino_STM32_mapleMini/core.a(HardwareSerial.cpp.o)
 .text          0x00000000        0x0 C:\Users\Nandi\AppData\Local\V.Micro\Arduino\Builds\sharpmem\Arduino_STM32_mapleMini/core.a(wirish_debug.cpp.o)
 .data          0x00000000        0x0 C:\Users\Nandi\AppData\Local\V.Micro\Arduino\Builds\sharpmem\Arduino_STM32_mapleMini/core.a(wirish_debug.cpp.o)
 .bss           0x00000000        0x0 C:\Users\Nandi\AppData\Local\V.Micro\Arduino\Builds\sharpmem\Arduino_STM32_mapleMini/core.a(wirish_debug.cpp.o)
 .text._Z16enableDebugPortsv
                0x00000000       0x10 C:\Users\Nandi\AppData\Local\V.Micro\Arduino\Builds\sharpmem\Arduino_STM32_mapleMini/core.a(wirish_debug.cpp.o)
 .text          0x00000000        0x0 C:\Users\Nandi\AppData\Local\V.Micro\Arduino\Builds\sharpmem\Arduino_STM32_mapleMini/core.a(gpio.c.o)
 .data          0x00000000        0x0 C:\Users\Nandi\AppData\Local\V.Micro\Arduino\Builds\sharpmem\Arduino_STM32_mapleMini/core.a(gpio.c.o)
 .bss           0x00000000        0x0 C:\Users\Nandi\AppData\Local\V.Micro\Arduino\Builds\sharpmem\Arduino_STM32_mapleMini/core.a(gpio.c.o)
 .data          0x00000000        0x0 c:/users/nandi/appdata/roaming/arduino15/packages/arduino/tools/arm-none-eabi-gcc/4.8.3-2014q1/bin/../lib/gcc/arm-none-eabi/4.8.3/armv7-m\libgcc.a(_arm_addsubdf3.o)
 .bss           0x00000000        0x0 c:/users/nandi/appdata/roaming/arduino15/packages/arduino/tools/arm-none-eabi-gcc/4.8.3-2014q1/bin/../lib/gcc/arm-none-eabi/4.8.3/armv7-m\libgcc.a(_arm_addsubdf3.o)
 .data          0x00000000        0x0 c:/users/nandi/appdata/roaming/arduino15/packages/arduino/tools/arm-none-eabi-gcc/4.8.3-2014q1/bin/../lib/gcc/arm-none-eabi/4.8.3/armv7-m\libgcc.a(_arm_muldivdf3.o)
 .bss           0x00000000        0x0 c:/users/nandi/appdata/roaming/arduino15/packages/arduino/tools/arm-none-eabi-gcc/4.8.3-2014q1/bin/../lib/gcc/arm-none-eabi/4.8.3/armv7-m\libgcc.a(_arm_muldivdf3.o)
 .text          0x00000000      0x110 c:/users/nandi/appdata/roaming/arduino15/packages/arduino/tools/arm-none-eabi-gcc/4.8.3-2014q1/bin/../lib/gcc/arm-none-eabi/4.8.3/armv7-m\libgcc.a(_arm_cmpdf2.o)
 .data          0x00000000        0x0 c:/users/nandi/appdata/roaming/arduino15/packages/arduino/tools/arm-none-eabi-gcc/4.8.3-2014q1/bin/../lib/gcc/arm-none-eabi/4.8.3/armv7-m\libgcc.a(_arm_cmpdf2.o)
 .bss           0x00000000        0x0 c:/users/nandi/appdata/roaming/arduino15/packages/arduino/tools/arm-none-eabi-gcc/4.8.3-2014q1/bin/../lib/gcc/arm-none-eabi/4.8.3/armv7-m\libgcc.a(_arm_cmpdf2.o)
 .text          0x00000000       0x50 c:/users/nandi/appdata/roaming/arduino15/packages/arduino/tools/arm-none-eabi-gcc/4.8.3-2014q1/bin/../lib/gcc/arm-none-eabi/4.8.3/armv7-m\libgcc.a(_arm_fixdfsi.o)
 .data          0x00000000        0x0 c:/users/nandi/appdata/roaming/arduino15/packages/arduino/tools/arm-none-eabi-gcc/4.8.3-2014q1/bin/../lib/gcc/arm-none-eabi/4.8.3/armv7-m\libgcc.a(_arm_fixdfsi.o)
 .bss           0x00000000        0x0 c:/users/nandi/appdata/roaming/arduino15/packages/arduino/tools/arm-none-eabi-gcc/4.8.3-2014q1/bin/../lib/gcc/arm-none-eabi/4.8.3/armv7-m\libgcc.a(_arm_fixdfsi.o)
 .data          0x00000000        0x0 c:/users/nandi/appdata/roaming/arduino15/packages/arduino/tools/arm-none-eabi-gcc/4.8.3-2014q1/bin/../lib/gcc/arm-none-eabi/4.8.3/armv7-m\libgcc.a(_arm_truncdfsf2.o)
 .bss           0x00000000        0x0 c:/users/nandi/appdata/roaming/arduino15/packages/arduino/tools/arm-none-eabi-gcc/4.8.3-2014q1/bin/../lib/gcc/arm-none-eabi/4.8.3/armv7-m\libgcc.a(_arm_truncdfsf2.o)
 .data          0x00000000        0x0 c:/users/nandi/appdata/roaming/arduino15/packages/arduino/tools/arm-none-eabi-gcc/4.8.3-2014q1/bin/../lib/gcc/arm-none-eabi/4.8.3/armv7-m\libgcc.a(_arm_addsubsf3.o)
 .bss           0x00000000        0x0 c:/users/nandi/appdata/roaming/arduino15/packages/arduino/tools/arm-none-eabi-gcc/4.8.3-2014q1/bin/../lib/gcc/arm-none-eabi/4.8.3/armv7-m\libgcc.a(_arm_addsubsf3.o)
 .data          0x00000000        0x0 c:/users/nandi/appdata/roaming/arduino15/packages/arduino/tools/arm-none-eabi-gcc/4.8.3-2014q1/bin/../lib/gcc/arm-none-eabi/4.8.3/armv7-m\libgcc.a(_arm_muldivsf3.o)
 .bss           0x00000000        0x0 c:/users/nandi/appdata/roaming/arduino15/packages/arduino/tools/arm-none-eabi-gcc/4.8.3-2014q1/bin/../lib/gcc/arm-none-eabi/4.8.3/armv7-m\libgcc.a(_arm_muldivsf3.o)
 .data          0x00000000        0x0 c:/users/nandi/appdata/roaming/arduino15/packages/arduino/tools/arm-none-eabi-gcc/4.8.3-2014q1/bin/../lib/gcc/arm-none-eabi/4.8.3/armv7-m\libgcc.a(_arm_cmpsf2.o)
 .bss           0x00000000        0x0 c:/users/nandi/appdata/roaming/arduino15/packages/arduino/tools/arm-none-eabi-gcc/4.8.3-2014q1/bin/../lib/gcc/arm-none-eabi/4.8.3/armv7-m\libgcc.a(_arm_cmpsf2.o)
 .data          0x00000000        0x0 c:/users/nandi/appdata/roaming/arduino15/packages/arduino/tools/arm-none-eabi-gcc/4.8.3-2014q1/bin/../lib/gcc/arm-none-eabi/4.8.3/armv7-m\libgcc.a(_arm_fixsfsi.o)
 .bss           0x00000000        0x0 c:/users/nandi/appdata/roaming/arduino15/packages/arduino/tools/arm-none-eabi-gcc/4.8.3-2014q1/bin/../lib/gcc/arm-none-eabi/4.8.3/armv7-m\libgcc.a(_arm_fixsfsi.o)
 .data          0x00000000        0x0 c:/users/nandi/appdata/roaming/arduino15/packages/arduino/tools/arm-none-eabi-gcc/4.8.3-2014q1/bin/../lib/gcc/arm-none-eabi/4.8.3/armv7-m\libgcc.a(_aeabi_uldivmod.o)
 .bss           0x00000000        0x0 c:/users/nandi/appdata/roaming/arduino15/packages/arduino/tools/arm-none-eabi-gcc/4.8.3-2014q1/bin/../lib/gcc/arm-none-eabi/4.8.3/armv7-m\libgcc.a(_aeabi_uldivmod.o)
 .text          0x00000000       0x30 c:/users/nandi/appdata/roaming/arduino15/packages/arduino/tools/arm-none-eabi-gcc/4.8.3-2014q1/bin/../lib/gcc/arm-none-eabi/4.8.3/armv7-m\libgcc.a(_fixdfdi.o)
 .data          0x00000000        0x0 c:/users/nandi/appdata/roaming/arduino15/packages/arduino/tools/arm-none-eabi-gcc/4.8.3-2014q1/bin/../lib/gcc/arm-none-eabi/4.8.3/armv7-m\libgcc.a(_fixdfdi.o)
 .bss           0x00000000        0x0 c:/users/nandi/appdata/roaming/arduino15/packages/arduino/tools/arm-none-eabi-gcc/4.8.3-2014q1/bin/../lib/gcc/arm-none-eabi/4.8.3/armv7-m\libgcc.a(_fixdfdi.o)
 .text          0x00000000       0x44 c:/users/nandi/appdata/roaming/arduino15/packages/arduino/tools/arm-none-eabi-gcc/4.8.3-2014q1/bin/../lib/gcc/arm-none-eabi/4.8.3/armv7-m\libgcc.a(_fixunsdfdi.o)
 .data          0x00000000        0x0 c:/users/nandi/appdata/roaming/arduino15/packages/arduino/tools/arm-none-eabi-gcc/4.8.3-2014q1/bin/../lib/gcc/arm-none-eabi/4.8.3/armv7-m\libgcc.a(_fixunsdfdi.o)
 .bss           0x00000000        0x0 c:/users/nandi/appdata/roaming/arduino15/packages/arduino/tools/arm-none-eabi-gcc/4.8.3-2014q1/bin/../lib/gcc/arm-none-eabi/4.8.3/armv7-m\libgcc.a(_fixunsdfdi.o)
 .data          0x00000000        0x0 c:/users/nandi/appdata/roaming/arduino15/packages/arduino/tools/arm-none-eabi-gcc/4.8.3-2014q1/bin/../lib/gcc/arm-none-eabi/4.8.3/armv7-m\libgcc.a(bpabi.o)
 .bss           0x00000000        0x0 c:/users/nandi/appdata/roaming/arduino15/packages/arduino/tools/arm-none-eabi-gcc/4.8.3-2014q1/bin/../lib/gcc/arm-none-eabi/4.8.3/armv7-m\libgcc.a(bpabi.o)
 .data          0x00000000        0x0 c:/users/nandi/appdata/roaming/arduino15/packages/arduino/tools/arm-none-eabi-gcc/4.8.3-2014q1/bin/../lib/gcc/arm-none-eabi/4.8.3/armv7-m\libgcc.a(_dvmd_tls.o)
 .bss           0x00000000        0x0 c:/users/nandi/appdata/roaming/arduino15/packages/arduino/tools/arm-none-eabi-gcc/4.8.3-2014q1/bin/../lib/gcc/arm-none-eabi/4.8.3/armv7-m\libgcc.a(_dvmd_tls.o)
 .text          0x00000000       0x40 c:/users/nandi/appdata/roaming/arduino15/packages/arduino/tools/arm-none-eabi-gcc/4.8.3-2014q1/bin/../lib/gcc/arm-none-eabi/4.8.3/armv7-m\libgcc.a(_arm_fixunsdfsi.o)
 .data          0x00000000        0x0 c:/users/nandi/appdata/roaming/arduino15/packages/arduino/tools/arm-none-eabi-gcc/4.8.3-2014q1/bin/../lib/gcc/arm-none-eabi/4.8.3/armv7-m\libgcc.a(_arm_fixunsdfsi.o)
 .bss           0x00000000        0x0 c:/users/nandi/appdata/roaming/arduino15/packages/arduino/tools/arm-none-eabi-gcc/4.8.3-2014q1/bin/../lib/gcc/arm-none-eabi/4.8.3/armv7-m\libgcc.a(_arm_fixunsdfsi.o)
 .data          0x00000000        0x0 c:/users/nandi/appdata/roaming/arduino15/packages/arduino/tools/arm-none-eabi-gcc/4.8.3-2014q1/bin/../lib/gcc/arm-none-eabi/4.8.3/armv7-m\libgcc.a(_divdi3.o)
 .bss           0x00000000        0x0 c:/users/nandi/appdata/roaming/arduino15/packages/arduino/tools/arm-none-eabi-gcc/4.8.3-2014q1/bin/../lib/gcc/arm-none-eabi/4.8.3/armv7-m\libgcc.a(_divdi3.o)
 .ARM.extab     0x00000000        0x0 c:/users/nandi/appdata/roaming/arduino15/packages/arduino/tools/arm-none-eabi-gcc/4.8.3-2014q1/bin/../lib/gcc/arm-none-eabi/4.8.3/armv7-m\libgcc.a(_divdi3.o)
 .data          0x00000000        0x0 c:/users/nandi/appdata/roaming/arduino15/packages/arduino/tools/arm-none-eabi-gcc/4.8.3-2014q1/bin/../lib/gcc/arm-none-eabi/4.8.3/armv7-m\libgcc.a(_udivdi3.o)
 .bss           0x00000000        0x0 c:/users/nandi/appdata/roaming/arduino15/packages/arduino/tools/arm-none-eabi-gcc/4.8.3-2014q1/bin/../lib/gcc/arm-none-eabi/4.8.3/armv7-m\libgcc.a(_udivdi3.o)
 .ARM.extab     0x00000000        0x0 c:/users/nandi/appdata/roaming/arduino15/packages/arduino/tools/arm-none-eabi-gcc/4.8.3-2014q1/bin/../lib/gcc/arm-none-eabi/4.8.3/armv7-m\libgcc.a(_udivdi3.o)
 .text          0x00000000        0x0 c:/users/nandi/appdata/roaming/arduino15/packages/arduino/tools/arm-none-eabi-gcc/4.8.3-2014q1/bin/../lib/gcc/arm-none-eabi/4.8.3/../../../../arm-none-eabi/lib/armv7-m\libc.a(lib_a-exit.o)
 .data          0x00000000        0x0 c:/users/nandi/appdata/roaming/arduino15/packages/arduino/tools/arm-none-eabi-gcc/4.8.3-2014q1/bin/../lib/gcc/arm-none-eabi/4.8.3/../../../../arm-none-eabi/lib/armv7-m\libc.a(lib_a-exit.o)
 .bss           0x00000000        0x0 c:/users/nandi/appdata/roaming/arduino15/packages/arduino/tools/arm-none-eabi-gcc/4.8.3-2014q1/bin/../lib/gcc/arm-none-eabi/4.8.3/../../../../arm-none-eabi/lib/armv7-m\libc.a(lib_a-exit.o)
 .text          0x00000000        0x0 c:/users/nandi/appdata/roaming/arduino15/packages/arduino/tools/arm-none-eabi-gcc/4.8.3-2014q1/bin/../lib/gcc/arm-none-eabi/4.8.3/../../../../arm-none-eabi/lib/armv7-m\libc.a(lib_a-impure.o)
 .data          0x00000000        0x0 c:/users/nandi/appdata/roaming/arduino15/packages/arduino/tools/arm-none-eabi-gcc/4.8.3-2014q1/bin/../lib/gcc/arm-none-eabi/4.8.3/../../../../arm-none-eabi/lib/armv7-m\libc.a(lib_a-impure.o)
 .bss           0x00000000        0x0 c:/users/nandi/appdata/roaming/arduino15/packages/arduino/tools/arm-none-eabi-gcc/4.8.3-2014q1/bin/../lib/gcc/arm-none-eabi/4.8.3/../../../../arm-none-eabi/lib/armv7-m\libc.a(lib_a-impure.o)
 .text          0x00000000        0x0 c:/users/nandi/appdata/roaming/arduino15/packages/arduino/tools/arm-none-eabi-gcc/4.8.3-2014q1/bin/../lib/gcc/arm-none-eabi/4.8.3/../../../../arm-none-eabi/lib/armv7-m\libc.a(lib_a-init.o)
 .data          0x00000000        0x0 c:/users/nandi/appdata/roaming/arduino15/packages/arduino/tools/arm-none-eabi-gcc/4.8.3-2014q1/bin/../lib/gcc/arm-none-eabi/4.8.3/../../../../arm-none-eabi/lib/armv7-m\libc.a(lib_a-init.o)
 .bss           0x00000000        0x0 c:/users/nandi/appdata/roaming/arduino15/packages/arduino/tools/arm-none-eabi-gcc/4.8.3-2014q1/bin/../lib/gcc/arm-none-eabi/4.8.3/../../../../arm-none-eabi/lib/armv7-m\libc.a(lib_a-init.o)
 .text          0x00000000        0x0 c:/users/nandi/appdata/roaming/arduino15/packages/arduino/tools/arm-none-eabi-gcc/4.8.3-2014q1/bin/../lib/gcc/arm-none-eabi/4.8.3/../../../../arm-none-eabi/lib/armv7-m\libc.a(lib_a-memset.o)
 .data          0x00000000        0x0 c:/users/nandi/appdata/roaming/arduino15/packages/arduino/tools/arm-none-eabi-gcc/4.8.3-2014q1/bin/../lib/gcc/arm-none-eabi/4.8.3/../../../../arm-none-eabi/lib/armv7-m\libc.a(lib_a-memset.o)
 .bss           0x00000000        0x0 c:/users/nandi/appdata/roaming/arduino15/packages/arduino/tools/arm-none-eabi-gcc/4.8.3-2014q1/bin/../lib/gcc/arm-none-eabi/4.8.3/../../../../arm-none-eabi/lib/armv7-m\libc.a(lib_a-memset.o)
 .text          0x00000000        0x0 c:/users/nandi/appdata/roaming/arduino15/packages/arduino/tools/arm-none-eabi-gcc/4.8.3-2014q1/bin/../lib/gcc/arm-none-eabi/4.8.3/../../../../arm-none-eabi/lib/armv7-m\libc.a(lib_a-rand.o)
 .data          0x00000000        0x0 c:/users/nandi/appdata/roaming/arduino15/packages/arduino/tools/arm-none-eabi-gcc/4.8.3-2014q1/bin/../lib/gcc/arm-none-eabi/4.8.3/../../../../arm-none-eabi/lib/armv7-m\libc.a(lib_a-rand.o)
 .bss           0x00000000        0x0 c:/users/nandi/appdata/roaming/arduino15/packages/arduino/tools/arm-none-eabi-gcc/4.8.3-2014q1/bin/../lib/gcc/arm-none-eabi/4.8.3/../../../../arm-none-eabi/lib/armv7-m\libc.a(lib_a-rand.o)
 .text.srand    0x00000000       0x10 c:/users/nandi/appdata/roaming/arduino15/packages/arduino/tools/arm-none-eabi-gcc/4.8.3-2014q1/bin/../lib/gcc/arm-none-eabi/4.8.3/../../../../arm-none-eabi/lib/armv7-m\libc.a(lib_a-rand.o)
 .text          0x00000000        0x0 c:/users/nandi/appdata/roaming/arduino15/packages/arduino/tools/arm-none-eabi-gcc/4.8.3-2014q1/bin/../lib/gcc/arm-none-eabi/4.8.3/../../../../arm-none-eabi/lib/armv7-m\libc.a(lib_a-strlen.o)
 .data          0x00000000        0x0 c:/users/nandi/appdata/roaming/arduino15/packages/arduino/tools/arm-none-eabi-gcc/4.8.3-2014q1/bin/../lib/gcc/arm-none-eabi/4.8.3/../../../../arm-none-eabi/lib/armv7-m\libc.a(lib_a-strlen.o)
 .bss           0x00000000        0x0 c:/users/nandi/appdata/roaming/arduino15/packages/arduino/tools/arm-none-eabi-gcc/4.8.3-2014q1/bin/../lib/gcc/arm-none-eabi/4.8.3/../../../../arm-none-eabi/lib/armv7-m\libc.a(lib_a-strlen.o)
 .text          0x00000000        0x0 c:/users/nandi/appdata/roaming/arduino15/packages/arduino/tools/arm-none-eabi-gcc/4.8.3-2014q1/bin/../lib/gcc/arm-none-eabi/4.8.3/../../../../arm-none-eabi/lib/armv7-m\libc.a(lib_a-strncpy.o)
 .data          0x00000000        0x0 c:/users/nandi/appdata/roaming/arduino15/packages/arduino/tools/arm-none-eabi-gcc/4.8.3-2014q1/bin/../lib/gcc/arm-none-eabi/4.8.3/../../../../arm-none-eabi/lib/armv7-m\libc.a(lib_a-strncpy.o)
 .bss           0x00000000        0x0 c:/users/nandi/appdata/roaming/arduino15/packages/arduino/tools/arm-none-eabi-gcc/4.8.3-2014q1/bin/../lib/gcc/arm-none-eabi/4.8.3/../../../../arm-none-eabi/lib/armv7-m\libc.a(lib_a-strncpy.o)
 .text.strncpy  0x00000000       0x64 c:/users/nandi/appdata/roaming/arduino15/packages/arduino/tools/arm-none-eabi-gcc/4.8.3-2014q1/bin/../lib/gcc/arm-none-eabi/4.8.3/../../../../arm-none-eabi/lib/armv7-m\libc.a(lib_a-strncpy.o)
 .text          0x00000000        0x0 c:/users/nandi/appdata/roaming/arduino15/packages/arduino/tools/arm-none-eabi-gcc/4.8.3-2014q1/bin/../lib/gcc/arm-none-eabi/4.8.3/../../../../arm-none-eabi/lib/armv7-m\libc.a(lib_a-__call_atexit.o)
 .data          0x00000000        0x0 c:/users/nandi/appdata/roaming/arduino15/packages/arduino/tools/arm-none-eabi-gcc/4.8.3-2014q1/bin/../lib/gcc/arm-none-eabi/4.8.3/../../../../arm-none-eabi/lib/armv7-m\libc.a(lib_a-__call_atexit.o)
 .bss           0x00000000        0x0 c:/users/nandi/appdata/roaming/arduino15/packages/arduino/tools/arm-none-eabi-gcc/4.8.3-2014q1/bin/../lib/gcc/arm-none-eabi/4.8.3/../../../../arm-none-eabi/lib/armv7-m\libc.a(lib_a-__call_atexit.o)
 .text          0x00000000        0x0 c:/users/nandi/appdata/roaming/arduino15/packages/arduino/tools/arm-none-eabi-gcc/4.8.3-2014q1/bin/../lib/gcc/arm-none-eabi/4.8.3/../../../../arm-none-eabi/lib/armv7-m\libc.a(lib_a-atexit.o)
 .data          0x00000000        0x0 c:/users/nandi/appdata/roaming/arduino15/packages/arduino/tools/arm-none-eabi-gcc/4.8.3-2014q1/bin/../lib/gcc/arm-none-eabi/4.8.3/../../../../arm-none-eabi/lib/armv7-m\libc.a(lib_a-atexit.o)
 .bss           0x00000000        0x0 c:/users/nandi/appdata/roaming/arduino15/packages/arduino/tools/arm-none-eabi-gcc/4.8.3-2014q1/bin/../lib/gcc/arm-none-eabi/4.8.3/../../../../arm-none-eabi/lib/armv7-m\libc.a(lib_a-atexit.o)
 .text          0x00000000        0x0 c:/users/nandi/appdata/roaming/arduino15/packages/arduino/tools/arm-none-eabi-gcc/4.8.3-2014q1/bin/../lib/gcc/arm-none-eabi/4.8.3/../../../../arm-none-eabi/lib/armv7-m\libc.a(lib_a-fini.o)
 .data          0x00000000        0x0 c:/users/nandi/appdata/roaming/arduino15/packages/arduino/tools/arm-none-eabi-gcc/4.8.3-2014q1/bin/../lib/gcc/arm-none-eabi/4.8.3/../../../../arm-none-eabi/lib/armv7-m\libc.a(lib_a-fini.o)
 .bss           0x00000000        0x0 c:/users/nandi/appdata/roaming/arduino15/packages/arduino/tools/arm-none-eabi-gcc/4.8.3-2014q1/bin/../lib/gcc/arm-none-eabi/4.8.3/../../../../arm-none-eabi/lib/armv7-m\libc.a(lib_a-fini.o)
 .text          0x00000000        0x0 c:/users/nandi/appdata/roaming/arduino15/packages/arduino/tools/arm-none-eabi-gcc/4.8.3-2014q1/bin/../lib/gcc/arm-none-eabi/4.8.3/../../../../arm-none-eabi/lib/armv7-m\libc.a(lib_a-__atexit.o)
 .data          0x00000000        0x0 c:/users/nandi/appdata/roaming/arduino15/packages/arduino/tools/arm-none-eabi-gcc/4.8.3-2014q1/bin/../lib/gcc/arm-none-eabi/4.8.3/../../../../arm-none-eabi/lib/armv7-m\libc.a(lib_a-__atexit.o)
 .bss           0x00000000        0x0 c:/users/nandi/appdata/roaming/arduino15/packages/arduino/tools/arm-none-eabi-gcc/4.8.3-2014q1/bin/../lib/gcc/arm-none-eabi/4.8.3/../../../../arm-none-eabi/lib/armv7-m\libc.a(lib_a-__atexit.o)
 .text          0x00000000        0x0 c:/users/nandi/appdata/roaming/arduino15/packages/arduino/tools/arm-none-eabi-gcc/4.8.3-2014q1/bin/../lib/gcc/arm-none-eabi/4.8.3/armv7-m/crtend.o
 .data          0x00000000        0x0 c:/users/nandi/appdata/roaming/arduino15/packages/arduino/tools/arm-none-eabi-gcc/4.8.3-2014q1/bin/../lib/gcc/arm-none-eabi/4.8.3/armv7-m/crtend.o
 .bss           0x00000000        0x0 c:/users/nandi/appdata/roaming/arduino15/packages/arduino/tools/arm-none-eabi-gcc/4.8.3-2014q1/bin/../lib/gcc/arm-none-eabi/4.8.3/armv7-m/crtend.o
 .eh_frame      0x00000000        0x4 c:/users/nandi/appdata/roaming/arduino15/packages/arduino/tools/arm-none-eabi-gcc/4.8.3-2014q1/bin/../lib/gcc/arm-none-eabi/4.8.3/armv7-m/crtend.o
 .jcr           0x00000000        0x4 c:/users/nandi/appdata/roaming/arduino15/packages/arduino/tools/arm-none-eabi-gcc/4.8.3-2014q1/bin/../lib/gcc/arm-none-eabi/4.8.3/armv7-m/crtend.o
 .text          0x00000000        0x0 c:/users/nandi/appdata/roaming/arduino15/packages/arduino/tools/arm-none-eabi-gcc/4.8.3-2014q1/bin/../lib/gcc/arm-none-eabi/4.8.3/armv7-m/crtn.o
 .data          0x00000000        0x0 c:/users/nandi/appdata/roaming/arduino15/packages/arduino/tools/arm-none-eabi-gcc/4.8.3-2014q1/bin/../lib/gcc/arm-none-eabi/4.8.3/armv7-m/crtn.o
 .bss           0x00000000        0x0 c:/users/nandi/appdata/roaming/arduino15/packages/arduino/tools/arm-none-eabi-gcc/4.8.3-2014q1/bin/../lib/gcc/arm-none-eabi/4.8.3/armv7-m/crtn.o
 .text          0x00000000        0x0 c:/users/nandi/appdata/roaming/arduino15/packages/arduino/tools/arm-none-eabi-gcc/4.8.3-2014q1/bin/../lib/gcc/arm-none-eabi/4.8.3/../../../../arm-none-eabi/lib/armv7-m\libnosys.a(_exit.o)
 .data          0x00000000        0x0 c:/users/nandi/appdata/roaming/arduino15/packages/arduino/tools/arm-none-eabi-gcc/4.8.3-2014q1/bin/../lib/gcc/arm-none-eabi/4.8.3/../../../../arm-none-eabi/lib/armv7-m\libnosys.a(_exit.o)
 .bss           0x00000000        0x0 c:/users/nandi/appdata/roaming/arduino15/packages/arduino/tools/arm-none-eabi-gcc/4.8.3-2014q1/bin/../lib/gcc/arm-none-eabi/4.8.3/../../../../arm-none-eabi/lib/armv7-m\libnosys.a(_exit.o)

Memory Configuration

Name             Origin             Length             Attributes
ram              0x20000c00         0x00004400         xrw
rom              0x08005000         0x0001b000         xr
*default*        0x00000000         0xffffffff

Linker script and memory map

LOAD c:/users/nandi/appdata/roaming/arduino15/packages/arduino/tools/arm-none-eabi-gcc/4.8.3-2014q1/bin/../lib/gcc/arm-none-eabi/4.8.3/armv7-m/crti.o
LOAD c:/users/nandi/appdata/roaming/arduino15/packages/arduino/tools/arm-none-eabi-gcc/4.8.3-2014q1/bin/../lib/gcc/arm-none-eabi/4.8.3/armv7-m/crtbegin.o
LOAD c:/users/nandi/appdata/roaming/arduino15/packages/arduino/tools/arm-none-eabi-gcc/4.8.3-2014q1/bin/../lib/gcc/arm-none-eabi/4.8.3/../../../../arm-none-eabi/lib/armv7-m/crt0.o
LOAD c:/users/nandi/appdata/roaming/arduino15/packages/arduino/tools/arm-none-eabi-gcc/4.8.3-2014q1/bin/../lib/gcc/arm-none-eabi/4.8.3/armv7-m\libgcc.a
START GROUP
LOAD C:\Users\Nandi\AppData\Local\V.Micro\Arduino\Builds\sharpmem\Arduino_STM32_mapleMini\sharpmem.cpp.o
LOAD C:\Users\Nandi\AppData\Local\V.Micro\Arduino\Builds\sharpmem\Arduino_STM32_mapleMini\SPI\SPI.cpp.o
LOAD C:\Users\Nandi\AppData\Local\V.Micro\Arduino\Builds\sharpmem\Arduino_STM32_mapleMini\Adafruit-GFX-Library-master\glcdfont.c.o
LOAD C:\Users\Nandi\AppData\Local\V.Micro\Arduino\Builds\sharpmem\Arduino_STM32_mapleMini\Adafruit-GFX-Library-master\Adafruit_GFX.cpp.o
LOAD C:\Users\Nandi\AppData\Local\V.Micro\Arduino\Builds\sharpmem\Arduino_STM32_mapleMini\SharpMemSTM32.cpp.o
LOAD C:\Users\Nandi\AppData\Local\V.Micro\Arduino\Builds\sharpmem\Arduino_STM32_mapleMini/core.a
END GROUP
LOAD c:/users/nandi/appdata/roaming/arduino15/packages/arduino/tools/arm-none-eabi-gcc/4.8.3-2014q1/bin/../lib/gcc/arm-none-eabi/4.8.3/../../../../arm-none-eabi/lib/armv7-m\libstdc++.a
LOAD c:/users/nandi/appdata/roaming/arduino15/packages/arduino/tools/arm-none-eabi-gcc/4.8.3-2014q1/bin/../lib/gcc/arm-none-eabi/4.8.3/../../../../arm-none-eabi/lib/armv7-m\libm.a
START GROUP
LOAD c:/users/nandi/appdata/roaming/arduino15/packages/arduino/tools/arm-none-eabi-gcc/4.8.3-2014q1/bin/../lib/gcc/arm-none-eabi/4.8.3/armv7-m\libgcc.a
LOAD c:/users/nandi/appdata/roaming/arduino15/packages/arduino/tools/arm-none-eabi-gcc/4.8.3-2014q1/bin/../lib/gcc/arm-none-eabi/4.8.3/../../../../arm-none-eabi/lib/armv7-m\libc.a
END GROUP
LOAD c:/users/nandi/appdata/roaming/arduino15/packages/arduino/tools/arm-none-eabi-gcc/4.8.3-2014q1/bin/../lib/gcc/arm-none-eabi/4.8.3/armv7-m/crtend.o
LOAD c:/users/nandi/appdata/roaming/arduino15/packages/arduino/tools/arm-none-eabi-gcc/4.8.3-2014q1/bin/../lib/gcc/arm-none-eabi/4.8.3/armv7-m/crtn.o
START GROUP
LOAD c:/users/nandi/appdata/roaming/arduino15/packages/arduino/tools/arm-none-eabi-gcc/4.8.3-2014q1/bin/../lib/gcc/arm-none-eabi/4.8.3/armv7-m\libgcc.a
LOAD c:/users/nandi/appdata/roaming/arduino15/packages/arduino/tools/arm-none-eabi-gcc/4.8.3-2014q1/bin/../lib/gcc/arm-none-eabi/4.8.3/../../../../arm-none-eabi/lib/armv7-m\libc.a
LOAD c:/users/nandi/appdata/roaming/arduino15/packages/arduino/tools/arm-none-eabi-gcc/4.8.3-2014q1/bin/../lib/gcc/arm-none-eabi/4.8.3/../../../../arm-none-eabi/lib/armv7-m\libm.a
END GROUP
START GROUP
LOAD c:/users/nandi/appdata/roaming/arduino15/packages/arduino/tools/arm-none-eabi-gcc/4.8.3-2014q1/bin/../lib/gcc/arm-none-eabi/4.8.3/../../../../arm-none-eabi/lib/armv7-m\libnosys.a
END GROUP
                0x20005000                PROVIDE (__msp_init, (ORIGIN (ram) + 0x4400))
                0x0800689c                PROVIDE (__exc_reset, __start__)

.text           0x08005000     0x488c
                0x08005000                __text_start__ = .
 *(.stm32.interrupt_vector)
 .stm32.interrupt_vector
                0x08005000       0xec C:\Users\Nandi\AppData\Local\V.Micro\Arduino\Builds\sharpmem\Arduino_STM32_mapleMini/core.a(vector_table.S.o)
                0x08005000                __stm32_vector_table
 *(.text .text.* .gnu.linkonce.t.*)
 .text          0x080050ec       0x54 c:/users/nandi/appdata/roaming/arduino15/packages/arduino/tools/arm-none-eabi-gcc/4.8.3-2014q1/bin/../lib/gcc/arm-none-eabi/4.8.3/armv7-m/crtbegin.o
 .text._Z5setupv
                0x08005140       0x78 C:\Users\Nandi\AppData\Local\V.Micro\Arduino\Builds\sharpmem\Arduino_STM32_mapleMini\sharpmem.cpp.o
                0x08005140                setup()
 .text._Z4loopv
                0x080051b8      0x180 C:\Users\Nandi\AppData\Local\V.Micro\Arduino\Builds\sharpmem\Arduino_STM32_mapleMini\sharpmem.cpp.o
                0x080051b8                loop()
 .text.startup._GLOBAL__sub_I_display
                0x08005338       0x34 C:\Users\Nandi\AppData\Local\V.Micro\Arduino\Builds\sharpmem\Arduino_STM32_mapleMini\sharpmem.cpp.o
 .text._ZL11disable_pwmPK14stm32_pin_info
                0x0800536c       0x10 C:\Users\Nandi\AppData\Local\V.Micro\Arduino\Builds\sharpmem\Arduino_STM32_mapleMini\SPI\SPI.cpp.o
 .text._ZL15dev_to_spi_pinsP7spi_dev.isra.8
                0x0800537c       0x1c C:\Users\Nandi\AppData\Local\V.Micro\Arduino\Builds\sharpmem\Arduino_STM32_mapleMini\SPI\SPI.cpp.o
 .text._ZL15configure_gpiosP7spi_devb
                0x08005398       0x84 C:\Users\Nandi\AppData\Local\V.Micro\Arduino\Builds\sharpmem\Arduino_STM32_mapleMini\SPI\SPI.cpp.o
 .text._ZL19determine_baud_rateP7spi_devm.isra.9
                0x0800541c       0x3c C:\Users\Nandi\AppData\Local\V.Micro\Arduino\Builds\sharpmem\Arduino_STM32_mapleMini\SPI\SPI.cpp.o
 .text._ZN8SPIClassC2Em
                0x08005458       0x88 C:\Users\Nandi\AppData\Local\V.Micro\Arduino\Builds\sharpmem\Arduino_STM32_mapleMini\SPI\SPI.cpp.o
                0x08005458                SPIClass::SPIClass(unsigned long)
                0x08005458                SPIClass::SPIClass(unsigned long)
 .text._ZN8SPIClass5beginEv
                0x080054e0       0x36 C:\Users\Nandi\AppData\Local\V.Micro\Arduino\Builds\sharpmem\Arduino_STM32_mapleMini\SPI\SPI.cpp.o
                0x080054e0                SPIClass::begin()
 .text._ZN8SPIClass15setClockDividerEm
                0x08005516        0x8 C:\Users\Nandi\AppData\Local\V.Micro\Arduino\Builds\sharpmem\Arduino_STM32_mapleMini\SPI\SPI.cpp.o
                0x08005516                SPIClass::setClockDivider(unsigned long)
 .text._ZN8SPIClass11setBitOrderE8BitOrder
                0x0800551e        0x8 C:\Users\Nandi\AppData\Local\V.Micro\Arduino\Builds\sharpmem\Arduino_STM32_mapleMini\SPI\SPI.cpp.o
                0x0800551e                SPIClass::setBitOrder(BitOrder)
 .text._ZN8SPIClass11setDataSizeEm
                0x08005526       0x16 C:\Users\Nandi\AppData\Local\V.Micro\Arduino\Builds\sharpmem\Arduino_STM32_mapleMini\SPI\SPI.cpp.o
                0x08005526                SPIClass::setDataSize(unsigned long)
 .text._ZN8SPIClass11setDataModeEh
                0x0800553c        0x8 C:\Users\Nandi\AppData\Local\V.Micro\Arduino\Builds\sharpmem\Arduino_STM32_mapleMini\SPI\SPI.cpp.o
                0x0800553c                SPIClass::setDataMode(unsigned char)
 .text._ZN8SPIClass5writeEPKhm
                0x08005544       0x30 C:\Users\Nandi\AppData\Local\V.Micro\Arduino\Builds\sharpmem\Arduino_STM32_mapleMini\SPI\SPI.cpp.o
                0x08005544                SPIClass::write(unsigned char const*, unsigned long)
 .text._ZNK8SPIClass8transferEh
                0x08005574       0x20 C:\Users\Nandi\AppData\Local\V.Micro\Arduino\Builds\sharpmem\Arduino_STM32_mapleMini\SPI\SPI.cpp.o
                0x08005574                SPIClass::transfer(unsigned char) const
 .text.startup._GLOBAL__sub_I__ZN8SPIClassC2Em
                0x08005594        0xc C:\Users\Nandi\AppData\Local\V.Micro\Arduino\Builds\sharpmem\Arduino_STM32_mapleMini\SPI\SPI.cpp.o
 .text._ZN12Adafruit_GFX8drawLineEsssst
                0x080055a0       0xc8 C:\Users\Nandi\AppData\Local\V.Micro\Arduino\Builds\sharpmem\Arduino_STM32_mapleMini\Adafruit-GFX-Library-master\Adafruit_GFX.cpp.o
                0x080055a0                Adafruit_GFX::drawLine(short, short, short, short, unsigned short)
 .text._ZN12Adafruit_GFX8drawRectEsssst
                0x08005668       0x5e C:\Users\Nandi\AppData\Local\V.Micro\Arduino\Builds\sharpmem\Arduino_STM32_mapleMini\Adafruit-GFX-Library-master\Adafruit_GFX.cpp.o
                0x08005668                Adafruit_GFX::drawRect(short, short, short, short, unsigned short)
 .text._ZN12Adafruit_GFX13drawFastVLineEssst
                0x080056c6       0x1c C:\Users\Nandi\AppData\Local\V.Micro\Arduino\Builds\sharpmem\Arduino_STM32_mapleMini\Adafruit-GFX-Library-master\Adafruit_GFX.cpp.o
                0x080056c6                Adafruit_GFX::drawFastVLine(short, short, short, unsigned short)
 .text._ZN12Adafruit_GFX13drawFastHLineEssst
                0x080056e2       0x1a C:\Users\Nandi\AppData\Local\V.Micro\Arduino\Builds\sharpmem\Arduino_STM32_mapleMini\Adafruit-GFX-Library-master\Adafruit_GFX.cpp.o
                0x080056e2                Adafruit_GFX::drawFastHLine(short, short, short, unsigned short)
 .text._ZN12Adafruit_GFX8fillRectEsssst
                0x080056fc       0x3c C:\Users\Nandi\AppData\Local\V.Micro\Arduino\Builds\sharpmem\Arduino_STM32_mapleMini\Adafruit-GFX-Library-master\Adafruit_GFX.cpp.o
                0x080056fc                Adafruit_GFX::fillRect(short, short, short, short, unsigned short)
 .text._ZN12Adafruit_GFX10fillScreenEt
                0x08005738       0x1c C:\Users\Nandi\AppData\Local\V.Micro\Arduino\Builds\sharpmem\Arduino_STM32_mapleMini\Adafruit-GFX-Library-master\Adafruit_GFX.cpp.o
                0x08005738                Adafruit_GFX::fillScreen(unsigned short)
 .text._ZN12Adafruit_GFX13invertDisplayEb
                0x08005754        0x2 C:\Users\Nandi\AppData\Local\V.Micro\Arduino\Builds\sharpmem\Arduino_STM32_mapleMini\Adafruit-GFX-Library-master\Adafruit_GFX.cpp.o
                0x08005754                Adafruit_GFX::invertDisplay(bool)
 *fill*         0x08005756        0x2 
 .text._ZN12Adafruit_GFXC2Ess
                0x08005758       0x30 C:\Users\Nandi\AppData\Local\V.Micro\Arduino\Builds\sharpmem\Arduino_STM32_mapleMini\Adafruit-GFX-Library-master\Adafruit_GFX.cpp.o
                0x08005758                Adafruit_GFX::Adafruit_GFX(short, short)
                0x08005758                Adafruit_GFX::Adafruit_GFX(short, short)
 .text._ZN12Adafruit_GFX16fillCircleHelperEssshst
                0x08005788      0x14c C:\Users\Nandi\AppData\Local\V.Micro\Arduino\Builds\sharpmem\Arduino_STM32_mapleMini\Adafruit-GFX-Library-master\Adafruit_GFX.cpp.o
                0x08005788                Adafruit_GFX::fillCircleHelper(short, short, short, unsigned char, short, unsigned short)
 .text._ZN12Adafruit_GFX10fillCircleEssst
                0x080058d4       0x46 C:\Users\Nandi\AppData\Local\V.Micro\Arduino\Builds\sharpmem\Arduino_STM32_mapleMini\Adafruit-GFX-Library-master\Adafruit_GFX.cpp.o
                0x080058d4                Adafruit_GFX::fillCircle(short, short, short, unsigned short)
 *fill*         0x0800591a        0x2 
 .text._ZN12Adafruit_GFX8drawCharEsshtth
                0x0800591c      0x140 C:\Users\Nandi\AppData\Local\V.Micro\Arduino\Builds\sharpmem\Arduino_STM32_mapleMini\Adafruit-GFX-Library-master\Adafruit_GFX.cpp.o
                0x0800591c                Adafruit_GFX::drawChar(short, short, unsigned char, unsigned short, unsigned short, unsigned char)
 .text._ZN12Adafruit_GFX5writeEh
                0x08005a5c       0x6a C:\Users\Nandi\AppData\Local\V.Micro\Arduino\Builds\sharpmem\Arduino_STM32_mapleMini\Adafruit-GFX-Library-master\Adafruit_GFX.cpp.o
                0x08005a5c                Adafruit_GFX::write(unsigned char)
 .text._ZN12Adafruit_GFX9setCursorEss
                0x08005ac6        0x6 C:\Users\Nandi\AppData\Local\V.Micro\Arduino\Builds\sharpmem\Arduino_STM32_mapleMini\Adafruit-GFX-Library-master\Adafruit_GFX.cpp.o
                0x08005ac6                Adafruit_GFX::setCursor(short, short)
 .text._ZN12Adafruit_GFX11setTextSizeEh
                0x08005acc        0xa C:\Users\Nandi\AppData\Local\V.Micro\Arduino\Builds\sharpmem\Arduino_STM32_mapleMini\Adafruit-GFX-Library-master\Adafruit_GFX.cpp.o
                0x08005acc                Adafruit_GFX::setTextSize(unsigned char)
 .text._ZN12Adafruit_GFX12setTextColorEt
                0x08005ad6        0x6 C:\Users\Nandi\AppData\Local\V.Micro\Arduino\Builds\sharpmem\Arduino_STM32_mapleMini\Adafruit-GFX-Library-master\Adafruit_GFX.cpp.o
                0x08005ad6                Adafruit_GFX::setTextColor(unsigned short)
 .text._ZN8SharpMem9drawPixelEsst
                0x08005adc       0x58 C:\Users\Nandi\AppData\Local\V.Micro\Arduino\Builds\sharpmem\Arduino_STM32_mapleMini\SharpMemSTM32.cpp.o
                0x08005adc                SharpMem::drawPixel(short, short, unsigned short)
 .text._ZN8SharpMemC2Ehhh
                0x08005b34       0x8c C:\Users\Nandi\AppData\Local\V.Micro\Arduino\Builds\sharpmem\Arduino_STM32_mapleMini\SharpMemSTM32.cpp.o
                0x08005b34                SharpMem::SharpMem(unsigned char, unsigned char, unsigned char)
                0x08005b34                SharpMem::SharpMem(unsigned char, unsigned char, unsigned char)
 .text._ZN8SharpMem5beginEv
                0x08005bc0       0x44 C:\Users\Nandi\AppData\Local\V.Micro\Arduino\Builds\sharpmem\Arduino_STM32_mapleMini\SharpMemSTM32.cpp.o
                0x08005bc0                SharpMem::begin()
 .text._ZN8SharpMem11clearBufferEv
                0x08005c04       0x10 C:\Users\Nandi\AppData\Local\V.Micro\Arduino\Builds\sharpmem\Arduino_STM32_mapleMini\SharpMemSTM32.cpp.o
                0x08005c04                SharpMem::clearBuffer()
 .text._ZN8SharpMem15reverseBitOrderEh
                0x08005c14       0x26 C:\Users\Nandi\AppData\Local\V.Micro\Arduino\Builds\sharpmem\Arduino_STM32_mapleMini\SharpMemSTM32.cpp.o
                0x08005c14                SharpMem::reverseBitOrder(unsigned char)
 *fill*         0x08005c3a        0x2 
 .text._ZN8SharpMem7refreshEv
                0x08005c3c       0xa4 C:\Users\Nandi\AppData\Local\V.Micro\Arduino\Builds\sharpmem\Arduino_STM32_mapleMini\SharpMemSTM32.cpp.o
                0x08005c3c                SharpMem::refresh()
 .text          0x08005ce0       0x60 C:\Users\Nandi\AppData\Local\V.Micro\Arduino\Builds\sharpmem\Arduino_STM32_mapleMini/core.a(exc.S.o)
                0x08005ce0                __exc_nmi
                0x08005ce4                __exc_hardfault
                0x08005ce8                __exc_memmanage
                0x08005cec                __exc_busfault
                0x08005cf0                __exc_usagefault
 .text          0x08005d40        0x2 C:\Users\Nandi\AppData\Local\V.Micro\Arduino\Builds\sharpmem\Arduino_STM32_mapleMini/core.a(isrs.S.o)
                0x08005d40                __stm32reservedexception9
                0x08005d40                __irq_i2c2_er
                0x08005d40                __irq_i2c1_er
                0x08005d40                __exc_debug_monitor
                0x08005d40                __exc_svc
                0x08005d40                __irq_adc
                0x08005d40                __irq_exti0
                0x08005d40                __irq_can_rx1
                0x08005d40                __irq_spi2
                0x08005d40                __irq_can_sce
                0x08005d40                __irq_exti2
                0x08005d40                __irq_exti3
                0x08005d40                __irq_exti9_5
                0x08005d40                __irq_pvd
                0x08005d40                __irq_tamper
                0x08005d40                __default_handler
                0x08005d40                __irq_wwdg
                0x08005d40                __stm32reservedexception10
                0x08005d40                __irq_flash
                0x08005d40                __irq_i2c2_ev
                0x08005d40                __stm32reservedexception13
                0x08005d40                __irq_rtc
                0x08005d40                __irq_spi1
                0x08005d40                __stm32reservedexception7
                0x08005d40                __irq_usb_hp_can_tx
                0x08005d40                __irq_exti15_10
                0x08005d40                __irq_exti4
                0x08005d40                __irq_rtcalarm
                0x08005d40                __stm32reservedexception8
                0x08005d40                __exc_pendsv
                0x08005d40                __irq_i2c1_ev
                0x08005d40                __irq_usbwakeup
                0x08005d40                __irq_exti1
                0x08005d40                __irq_rcc
 *fill*         0x08005d42        0x2 
 .text.__irq_dma1_channel1
                0x08005d44       0x18 C:\Users\Nandi\AppData\Local\V.Micro\Arduino\Builds\sharpmem\Arduino_STM32_mapleMini/core.a(dma_f1.c.o)
                0x08005d44                __irq_dma1_channel1
 .text.__irq_dma1_channel2
                0x08005d5c       0x18 C:\Users\Nandi\AppData\Local\V.Micro\Arduino\Builds\sharpmem\Arduino_STM32_mapleMini/core.a(dma_f1.c.o)
                0x08005d5c                __irq_dma1_channel2
 .text.__irq_dma1_channel3
                0x08005d74       0x1c C:\Users\Nandi\AppData\Local\V.Micro\Arduino\Builds\sharpmem\Arduino_STM32_mapleMini/core.a(dma_f1.c.o)
                0x08005d74                __irq_dma1_channel3
 .text.__irq_dma1_channel4
                0x08005d90       0x1c C:\Users\Nandi\AppData\Local\V.Micro\Arduino\Builds\sharpmem\Arduino_STM32_mapleMini/core.a(dma_f1.c.o)
                0x08005d90                __irq_dma1_channel4
 .text.__irq_dma1_channel5
                0x08005dac       0x1c C:\Users\Nandi\AppData\Local\V.Micro\Arduino\Builds\sharpmem\Arduino_STM32_mapleMini/core.a(dma_f1.c.o)
                0x08005dac                __irq_dma1_channel5
 .text.__irq_dma1_channel6
                0x08005dc8       0x1c C:\Users\Nandi\AppData\Local\V.Micro\Arduino\Builds\sharpmem\Arduino_STM32_mapleMini/core.a(dma_f1.c.o)
                0x08005dc8                __irq_dma1_channel6
 .text.__irq_dma1_channel7
                0x08005de4       0x1c C:\Users\Nandi\AppData\Local\V.Micro\Arduino\Builds\sharpmem\Arduino_STM32_mapleMini/core.a(dma_f1.c.o)
                0x08005de4                __irq_dma1_channel7
 .text.rcc_dev_clk
                0x08005e00        0xc C:\Users\Nandi\AppData\Local\V.Micro\Arduino\Builds\sharpmem\Arduino_STM32_mapleMini/core.a(rcc.c.o)
                0x08005e00                rcc_dev_clk
 .text.rcc_switch_sysclk
                0x08005e0c       0x20 C:\Users\Nandi\AppData\Local\V.Micro\Arduino\Builds\sharpmem\Arduino_STM32_mapleMini/core.a(rcc.c.o)
                0x08005e0c                rcc_switch_sysclk
 .text.rcc_turn_on_clk
                0x08005e2c       0x1a C:\Users\Nandi\AppData\Local\V.Micro\Arduino\Builds\sharpmem\Arduino_STM32_mapleMini/core.a(rcc.c.o)
                0x08005e2c                rcc_turn_on_clk
 .text.rcc_turn_off_clk
                0x08005e46       0x1c C:\Users\Nandi\AppData\Local\V.Micro\Arduino\Builds\sharpmem\Arduino_STM32_mapleMini/core.a(rcc.c.o)
                0x08005e46                rcc_turn_off_clk
 .text.rcc_is_clk_ready
                0x08005e62       0x18 C:\Users\Nandi\AppData\Local\V.Micro\Arduino\Builds\sharpmem\Arduino_STM32_mapleMini/core.a(rcc.c.o)
                0x08005e62                rcc_is_clk_ready
 *fill*         0x08005e7a        0x2 
 .text.rcc_configure_pll
                0x08005e7c       0x18 C:\Users\Nandi\AppData\Local\V.Micro\Arduino\Builds\sharpmem\Arduino_STM32_mapleMini/core.a(rcc_f1.c.o)
                0x08005e7c                rcc_configure_pll
 .text.rcc_clk_enable
                0x08005e94       0x30 C:\Users\Nandi\AppData\Local\V.Micro\Arduino\Builds\sharpmem\Arduino_STM32_mapleMini/core.a(rcc_f1.c.o)
                0x08005e94                rcc_clk_enable
 .text.rcc_reset_dev
                0x08005ec4       0x34 C:\Users\Nandi\AppData\Local\V.Micro\Arduino\Builds\sharpmem\Arduino_STM32_mapleMini/core.a(rcc_f1.c.o)
                0x08005ec4                rcc_reset_dev
 .text.rcc_set_prescaler
                0x08005ef8       0x20 C:\Users\Nandi\AppData\Local\V.Micro\Arduino\Builds\sharpmem\Arduino_STM32_mapleMini/core.a(rcc_f1.c.o)
                0x08005ef8                rcc_set_prescaler
 .text.rcc_clk_disable
                0x08005f18       0x30 C:\Users\Nandi\AppData\Local\V.Micro\Arduino\Builds\sharpmem\Arduino_STM32_mapleMini/core.a(rcc_f1.c.o)
                0x08005f18                rcc_clk_disable
 .text.bb_peri_set_bit
                0x08005f48        0xe C:\Users\Nandi\AppData\Local\V.Micro\Arduino\Builds\sharpmem\Arduino_STM32_mapleMini/core.a(spi.c.o)
 .text.spi_init
                0x08005f56       0x14 C:\Users\Nandi\AppData\Local\V.Micro\Arduino\Builds\sharpmem\Arduino_STM32_mapleMini/core.a(spi.c.o)
                0x08005f56                spi_init
 .text.spi_tx   0x08005f6a       0x28 C:\Users\Nandi\AppData\Local\V.Micro\Arduino\Builds\sharpmem\Arduino_STM32_mapleMini/core.a(spi.c.o)
                0x08005f6a                spi_tx
 .text.spi_peripheral_enable
                0x08005f92        0xa C:\Users\Nandi\AppData\Local\V.Micro\Arduino\Builds\sharpmem\Arduino_STM32_mapleMini/core.a(spi.c.o)
                0x08005f92                spi_peripheral_enable
 .text.spi_peripheral_disable
                0x08005f9c        0xa C:\Users\Nandi\AppData\Local\V.Micro\Arduino\Builds\sharpmem\Arduino_STM32_mapleMini/core.a(spi.c.o)
                0x08005f9c                spi_peripheral_disable
 .text.spi_master_enable
                0x08005fa6       0x28 C:\Users\Nandi\AppData\Local\V.Micro\Arduino\Builds\sharpmem\Arduino_STM32_mapleMini/core.a(spi.c.o)
                0x08005fa6                spi_master_enable
 .text.spi_config_gpios
                0x08005fce       0x5a C:\Users\Nandi\AppData\Local\V.Micro\Arduino\Builds\sharpmem\Arduino_STM32_mapleMini/core.a(spi_f1.c.o)
                0x08005fce                spi_config_gpios
 .text.systick_init
                0x08006028       0x10 C:\Users\Nandi\AppData\Local\V.Micro\Arduino\Builds\sharpmem\Arduino_STM32_mapleMini/core.a(systick.c.o)
                0x08006028                systick_init
 .text.__exc_systick
                0x08006038       0x1c C:\Users\Nandi\AppData\Local\V.Micro\Arduino\Builds\sharpmem\Arduino_STM32_mapleMini/core.a(systick.c.o)
                0x08006038                __exc_systick
 .text.timer_oc_set_mode
                0x08006054       0x3a C:\Users\Nandi\AppData\Local\V.Micro\Arduino\Builds\sharpmem\Arduino_STM32_mapleMini/core.a(timer.c.o)
 *fill*         0x0800608e        0x2 
 .text.timer_foreach
                0x08006090       0x28 C:\Users\Nandi\AppData\Local\V.Micro\Arduino\Builds\sharpmem\Arduino_STM32_mapleMini/core.a(timer.c.o)
                0x08006090                timer_foreach
 .text.timer_init
                0x080060b8       0x14 C:\Users\Nandi\AppData\Local\V.Micro\Arduino\Builds\sharpmem\Arduino_STM32_mapleMini/core.a(timer.c.o)
                0x080060b8                timer_init
 .text.timer_has_cc_channel
                0x080060cc       0x30 C:\Users\Nandi\AppData\Local\V.Micro\Arduino\Builds\sharpmem\Arduino_STM32_mapleMini/core.a(timer.c.o)
                0x080060cc                timer_has_cc_channel
 .text.timer_detach_interrupt
                0x080060fc       0x1e C:\Users\Nandi\AppData\Local\V.Micro\Arduino\Builds\sharpmem\Arduino_STM32_mapleMini/core.a(timer.c.o)
                0x080060fc                timer_detach_interrupt
 .text.timer_set_mode
                0x0800611a       0x94 C:\Users\Nandi\AppData\Local\V.Micro\Arduino\Builds\sharpmem\Arduino_STM32_mapleMini/core.a(timer.c.o)
                0x0800611a                timer_set_mode
 *fill*         0x080061ae        0x2 
 .text.__irq_tim1_brk
                0x080061b0       0x24 C:\Users\Nandi\AppData\Local\V.Micro\Arduino\Builds\sharpmem\Arduino_STM32_mapleMini/core.a(timer.c.o)
                0x080061b0                __irq_tim1_brk
 .text.__irq_tim1_up
                0x080061d4       0x24 C:\Users\Nandi\AppData\Local\V.Micro\Arduino\Builds\sharpmem\Arduino_STM32_mapleMini/core.a(timer.c.o)
                0x080061d4                __irq_tim1_up
 .text.__irq_tim1_trg_com
                0x080061f8       0x38 C:\Users\Nandi\AppData\Local\V.Micro\Arduino\Builds\sharpmem\Arduino_STM32_mapleMini/core.a(timer.c.o)
                0x080061f8                __irq_tim1_trg_com
 .text.__irq_tim1_cc
                0x08006230       0x54 C:\Users\Nandi\AppData\Local\V.Micro\Arduino\Builds\sharpmem\Arduino_STM32_mapleMini/core.a(timer.c.o)
                0x08006230                __irq_tim1_cc
 .text.__irq_tim2
                0x08006284       0x70 C:\Users\Nandi\AppData\Local\V.Micro\Arduino\Builds\sharpmem\Arduino_STM32_mapleMini/core.a(timer.c.o)
                0x08006284                __irq_tim2
 .text.__irq_tim3
                0x080062f4       0x70 C:\Users\Nandi\AppData\Local\V.Micro\Arduino\Builds\sharpmem\Arduino_STM32_mapleMini/core.a(timer.c.o)
                0x080062f4                __irq_tim3
 .text.__irq_tim4
                0x08006364       0x70 C:\Users\Nandi\AppData\Local\V.Micro\Arduino\Builds\sharpmem\Arduino_STM32_mapleMini/core.a(timer.c.o)
                0x08006364                __irq_tim4
 .text.throb    0x080063d4       0x4c C:\Users\Nandi\AppData\Local\V.Micro\Arduino\Builds\sharpmem\Arduino_STM32_mapleMini/core.a(util.c.o)
                0x080063d4                throb
 .text.__error  0x08006420       0x14 C:\Users\Nandi\AppData\Local\V.Micro\Arduino\Builds\sharpmem\Arduino_STM32_mapleMini/core.a(util.c.o)
                0x08006420                __error
 .text.__cxa_pure_virtual
                0x08006434        0x2 C:\Users\Nandi\AppData\Local\V.Micro\Arduino\Builds\sharpmem\Arduino_STM32_mapleMini/core.a(cxxabi-compat.cpp.o)
                0x08006434                __cxa_pure_virtual
 .text.startup._Z7premainv
                0x08006436        0x4 C:\Users\Nandi\AppData\Local\V.Micro\Arduino\Builds\sharpmem\Arduino_STM32_mapleMini/core.a(main.cpp.o)
                0x08006436                premain()
 .text.startup.main
                0x0800643a        0xc C:\Users\Nandi\AppData\Local\V.Micro\Arduino\Builds\sharpmem\Arduino_STM32_mapleMini/core.a(main.cpp.o)
                0x0800643a                main
 .text._ZN5Print5writeEPKc
                0x08006446       0x1c C:\Users\Nandi\AppData\Local\V.Micro\Arduino\Builds\sharpmem\Arduino_STM32_mapleMini/core.a(Print.cpp.o)
                0x08006446                Print::write(char const*)
 .text._ZN5Print5writeEPKvm
                0x08006462       0x1e C:\Users\Nandi\AppData\Local\V.Micro\Arduino\Builds\sharpmem\Arduino_STM32_mapleMini/core.a(Print.cpp.o)
                0x08006462                Print::write(void const*, unsigned long)
 .text._ZN5Print5printEc
                0x08006480        0xa C:\Users\Nandi\AppData\Local\V.Micro\Arduino\Builds\sharpmem\Arduino_STM32_mapleMini/core.a(Print.cpp.o)
                0x08006480                Print::print(char)
 .text._ZN5Print5printEPKc
                0x0800648a        0xa C:\Users\Nandi\AppData\Local\V.Micro\Arduino\Builds\sharpmem\Arduino_STM32_mapleMini/core.a(Print.cpp.o)
                0x0800648a                Print::print(char const*)
 .text._ZN5Print7printlnEv
                0x08006494       0x18 C:\Users\Nandi\AppData\Local\V.Micro\Arduino\Builds\sharpmem\Arduino_STM32_mapleMini/core.a(Print.cpp.o)
                0x08006494                Print::println()
 .text._ZN5Print7printlnEPKc
                0x080064ac       0x14 C:\Users\Nandi\AppData\Local\V.Micro\Arduino\Builds\sharpmem\Arduino_STM32_mapleMini/core.a(Print.cpp.o)
                0x080064ac                Print::println(char const*)
 .text._ZN5Print11printNumberEyh
                0x080064c0       0x84 C:\Users\Nandi\AppData\Local\V.Micro\Arduino\Builds\sharpmem\Arduino_STM32_mapleMini/core.a(Print.cpp.o)
                0x080064c0                Print::printNumber(unsigned long long, unsigned char)
 .text._ZN5Print5printExi
                0x08006544       0x40 C:\Users\Nandi\AppData\Local\V.Micro\Arduino\Builds\sharpmem\Arduino_STM32_mapleMini/core.a(Print.cpp.o)
                0x08006544                Print::print(long long, int)
 .text._ZN5Print5printEii
                0x08006584       0x12 C:\Users\Nandi\AppData\Local\V.Micro\Arduino\Builds\sharpmem\Arduino_STM32_mapleMini/core.a(Print.cpp.o)
                0x08006584                Print::print(int, int)
 .text._ZN9USBSerial5writeEh
                0x08006596       0x18 C:\Users\Nandi\AppData\Local\V.Micro\Arduino\Builds\sharpmem\Arduino_STM32_mapleMini/core.a(usb_serial.cpp.o)
                0x08006596                USBSerial::write(unsigned char)
 .text._ZN9USBSerial9availableEv
                0x080065ae        0x4 C:\Users\Nandi\AppData\Local\V.Micro\Arduino\Builds\sharpmem\Arduino_STM32_mapleMini/core.a(usb_serial.cpp.o)
                0x080065ae                USBSerial::available()
 .text._ZN9USBSerial5writeEPKc
                0x080065b2       0x1c C:\Users\Nandi\AppData\Local\V.Micro\Arduino\Builds\sharpmem\Arduino_STM32_mapleMini/core.a(usb_serial.cpp.o)
                0x080065b2                USBSerial::write(char const*)
 .text._ZN9USBSerial4peekEv
                0x080065ce       0x1e C:\Users\Nandi\AppData\Local\V.Micro\Arduino\Builds\sharpmem\Arduino_STM32_mapleMini/core.a(usb_serial.cpp.o)
                0x080065ce                USBSerial::peek()
 .text._ZN9USBSerial4readEv
                0x080065ec       0x1e C:\Users\Nandi\AppData\Local\V.Micro\Arduino\Builds\sharpmem\Arduino_STM32_mapleMini/core.a(usb_serial.cpp.o)
                0x080065ec                USBSerial::read()
 *fill*         0x0800660a        0x2 
 .text._ZL14ifaceSetupHookjPv
                0x0800660c       0x50 C:\Users\Nandi\AppData\Local\V.Micro\Arduino\Builds\sharpmem\Arduino_STM32_mapleMini/core.a(usb_serial.cpp.o)
 .text._ZL6rxHookjPv
                0x0800665c       0x84 C:\Users\Nandi\AppData\Local\V.Micro\Arduino\Builds\sharpmem\Arduino_STM32_mapleMini/core.a(usb_serial.cpp.o)
 .text._ZL10wait_resetv
                0x080066e0       0x10 C:\Users\Nandi\AppData\Local\V.Micro\Arduino\Builds\sharpmem\Arduino_STM32_mapleMini/core.a(usb_serial.cpp.o)
 .text._ZN9USBSerialC2Ev
                0x080066f0       0x14 C:\Users\Nandi\AppData\Local\V.Micro\Arduino\Builds\sharpmem\Arduino_STM32_mapleMini/core.a(usb_serial.cpp.o)
                0x080066f0                USBSerial::USBSerial()
                0x080066f0                USBSerial::USBSerial()
 .text._ZN9USBSerial5beginEv
                0x08006704       0x2c C:\Users\Nandi\AppData\Local\V.Micro\Arduino\Builds\sharpmem\Arduino_STM32_mapleMini/core.a(usb_serial.cpp.o)
                0x08006704                USBSerial::begin()
 .text._ZN9USBSerial5beginEm
                0x08006730        0xa C:\Users\Nandi\AppData\Local\V.Micro\Arduino\Builds\sharpmem\Arduino_STM32_mapleMini/core.a(usb_serial.cpp.o)
                0x08006730                USBSerial::begin(unsigned long)
 .text._ZN9USBSerial4readEPvm
                0x0800673a       0x22 C:\Users\Nandi\AppData\Local\V.Micro\Arduino\Builds\sharpmem\Arduino_STM32_mapleMini/core.a(usb_serial.cpp.o)
                0x0800673a                USBSerial::read(void*, unsigned long)
 .text._ZN9USBSerial5flushEv
                0x0800675c       0x1c C:\Users\Nandi\AppData\Local\V.Micro\Arduino\Builds\sharpmem\Arduino_STM32_mapleMini/core.a(usb_serial.cpp.o)
                0x0800675c                USBSerial::flush()
 .text._ZN9USBSerial11isConnectedEv
                0x08006778       0x14 C:\Users\Nandi\AppData\Local\V.Micro\Arduino\Builds\sharpmem\Arduino_STM32_mapleMini/core.a(usb_serial.cpp.o)
                0x08006778                USBSerial::isConnected()
 .text._ZN9USBSerial5writeEPKvm
                0x0800678c       0x5c C:\Users\Nandi\AppData\Local\V.Micro\Arduino\Builds\sharpmem\Arduino_STM32_mapleMini/core.a(usb_serial.cpp.o)
                0x0800678c                USBSerial::write(void const*, unsigned long)
 .text.startup._GLOBAL__sub_I__ZN9USBSerialC2Ev
                0x080067e8        0xc C:\Users\Nandi\AppData\Local\V.Micro\Arduino\Builds\sharpmem\Arduino_STM32_mapleMini/core.a(usb_serial.cpp.o)
 .text._Z12digitalWritehh
                0x080067f4       0x2c C:\Users\Nandi\AppData\Local\V.Micro\Arduino\Builds\sharpmem\Arduino_STM32_mapleMini/core.a(wirish_digital.cpp.o)
                0x080067f4                digitalWrite(unsigned char, unsigned char)
 .text._Z17delayMicrosecondsm
                0x08006820        0xe C:\Users\Nandi\AppData\Local\V.Micro\Arduino\Builds\sharpmem\Arduino_STM32_mapleMini/core.a(wirish_time.cpp.o)
                0x08006820                delayMicroseconds(unsigned long)
 *fill*         0x0800682e        0x2 
 .text._Z7pinModeh13WiringPinMode
                0x08006830       0x6c C:\Users\Nandi\AppData\Local\V.Micro\Arduino\Builds\sharpmem\Arduino_STM32_mapleMini/core.a(wirish_digital_f1.cpp.o)
                0x08006830                pinMode(unsigned char, WiringPinMode)
 .text          0x0800689c       0x10 C:\Users\Nandi\AppData\Local\V.Micro\Arduino\Builds\sharpmem\Arduino_STM32_mapleMini/core.a(start.S.o)
                0x0800689c                __start__
 .text.start_c  0x080068ac       0x64 C:\Users\Nandi\AppData\Local\V.Micro\Arduino\Builds\sharpmem\Arduino_STM32_mapleMini/core.a(start_c.c.o)
                0x080068ac                start_c
 .text._Z9boardInitv
                0x08006910        0x4 C:\Users\Nandi\AppData\Local\V.Micro\Arduino\Builds\sharpmem\Arduino_STM32_mapleMini/core.a(board.cpp.o)
                0x08006910                boardInit()
 .text.startup._GLOBAL__sub_I__Z9boardInitv
                0x08006914       0x48 C:\Users\Nandi\AppData\Local\V.Micro\Arduino\Builds\sharpmem\Arduino_STM32_mapleMini/core.a(board.cpp.o)
 .text._ZL18adc_default_configPK7adc_dev
                0x0800695c       0x1c C:\Users\Nandi\AppData\Local\V.Micro\Arduino\Builds\sharpmem\Arduino_STM32_mapleMini/core.a(boards.cpp.o)
 .text._ZL20timer_default_configP9timer_dev
                0x08006978       0x9e C:\Users\Nandi\AppData\Local\V.Micro\Arduino\Builds\sharpmem\Arduino_STM32_mapleMini/core.a(boards.cpp.o)
 *fill*         0x08006a16        0x2 
 .text._Z4initv
                0x08006a18       0xbc C:\Users\Nandi\AppData\Local\V.Micro\Arduino\Builds\sharpmem\Arduino_STM32_mapleMini/core.a(boards.cpp.o)
                0x08006a18                init()
 .text._ZN6wirish4priv15board_reset_pllEv
                0x08006ad4        0x2 C:\Users\Nandi\AppData\Local\V.Micro\Arduino\Builds\sharpmem\Arduino_STM32_mapleMini/core.a(boards_setup.cpp.o)
                0x08006ad4                wirish::priv::board_reset_pll()
 .text._ZN6wirish4priv28board_setup_clock_prescalersEv
                0x08006ad6       0x2e C:\Users\Nandi\AppData\Local\V.Micro\Arduino\Builds\sharpmem\Arduino_STM32_mapleMini/core.a(boards_setup.cpp.o)
                0x08006ad6                wirish::priv::board_setup_clock_prescalers()
 .text._ZN6wirish4priv16board_setup_gpioEv
                0x08006b04        0x4 C:\Users\Nandi\AppData\Local\V.Micro\Arduino\Builds\sharpmem\Arduino_STM32_mapleMini/core.a(boards_setup.cpp.o)
                0x08006b04                wirish::priv::board_setup_gpio()
 .text._ZN6wirish4priv15board_setup_usbEv
                0x08006b08        0xc C:\Users\Nandi\AppData\Local\V.Micro\Arduino\Builds\sharpmem\Arduino_STM32_mapleMini/core.a(boards_setup.cpp.o)
                0x08006b08                wirish::priv::board_setup_usb()
 .text._ZN6wirish4priv11series_initEv
                0x08006b14        0x4 C:\Users\Nandi\AppData\Local\V.Micro\Arduino\Builds\sharpmem\Arduino_STM32_mapleMini/core.a(boards_setup.cpp.o)
                0x08006b14                wirish::priv::series_init()
 .text.adc_init
                0x08006b18       0x14 C:\Users\Nandi\AppData\Local\V.Micro\Arduino\Builds\sharpmem\Arduino_STM32_mapleMini/core.a(adc.c.o)
                0x08006b18                adc_init
 .text.adc_set_extsel
                0x08006b2c        0xe C:\Users\Nandi\AppData\Local\V.Micro\Arduino\Builds\sharpmem\Arduino_STM32_mapleMini/core.a(adc.c.o)
                0x08006b2c                adc_set_extsel
 .text.adc_set_sample_rate
                0x08006b3a       0x30 C:\Users\Nandi\AppData\Local\V.Micro\Arduino\Builds\sharpmem\Arduino_STM32_mapleMini/core.a(adc.c.o)
                0x08006b3a                adc_set_sample_rate
 .text.adc_calibrate
                0x08006b6a       0x24 C:\Users\Nandi\AppData\Local\V.Micro\Arduino\Builds\sharpmem\Arduino_STM32_mapleMini/core.a(adc_f1.c.o)
                0x08006b6a                adc_calibrate
 .text.adc_set_prescaler
                0x08006b8e        0x8 C:\Users\Nandi\AppData\Local\V.Micro\Arduino\Builds\sharpmem\Arduino_STM32_mapleMini/core.a(adc_f1.c.o)
                0x08006b8e                adc_set_prescaler
 *fill*         0x08006b96        0x2 
 .text.adc_foreach
                0x08006b98       0x1c C:\Users\Nandi\AppData\Local\V.Micro\Arduino\Builds\sharpmem\Arduino_STM32_mapleMini/core.a(adc_f1.c.o)
                0x08006b98                adc_foreach
 .text.adc_enable_single_swstart
                0x08006bb4       0x36 C:\Users\Nandi\AppData\Local\V.Micro\Arduino\Builds\sharpmem\Arduino_STM32_mapleMini/core.a(adc_f1.c.o)
                0x08006bb4                adc_enable_single_swstart
 *fill*         0x08006bea        0x2 
 .text.flash_set_latency
                0x08006bec       0x14 C:\Users\Nandi\AppData\Local\V.Micro\Arduino\Builds\sharpmem\Arduino_STM32_mapleMini/core.a(flash.c.o)
                0x08006bec                flash_set_latency
 .text.gpio_init_all
                0x08006c00       0x30 C:\Users\Nandi\AppData\Local\V.Micro\Arduino\Builds\sharpmem\Arduino_STM32_mapleMini/core.a(gpio_f1.c.o)
                0x08006c00                gpio_init_all
 .text.gpio_set_mode
                0x08006c30       0x50 C:\Users\Nandi\AppData\Local\V.Micro\Arduino\Builds\sharpmem\Arduino_STM32_mapleMini/core.a(gpio_f1.c.o)
                0x08006c30                gpio_set_mode
 .text.afio_init
                0x08006c80       0x12 C:\Users\Nandi\AppData\Local\V.Micro\Arduino\Builds\sharpmem\Arduino_STM32_mapleMini/core.a(gpio_f1.c.o)
                0x08006c80                afio_init
 *fill*         0x08006c92        0x2 
 .text.iwdg_init
                0x08006c94       0x20 C:\Users\Nandi\AppData\Local\V.Micro\Arduino\Builds\sharpmem\Arduino_STM32_mapleMini/core.a(iwdg.c.o)
                0x08006c94                iwdg_init
 .text.nvic_irq_set_priority
                0x08006cb4       0x28 C:\Users\Nandi\AppData\Local\V.Micro\Arduino\Builds\sharpmem\Arduino_STM32_mapleMini/core.a(nvic.c.o)
                0x08006cb4                nvic_irq_set_priority
 .text.nvic_init
                0x08006cdc       0x30 C:\Users\Nandi\AppData\Local\V.Micro\Arduino\Builds\sharpmem\Arduino_STM32_mapleMini/core.a(nvic.c.o)
                0x08006cdc                nvic_init
 .text.nvic_sys_reset
                0x08006d0c       0x1c C:\Users\Nandi\AppData\Local\V.Micro\Arduino\Builds\sharpmem\Arduino_STM32_mapleMini/core.a(nvic.c.o)
                0x08006d0c                nvic_sys_reset
 .text.usart_tx
                0x08006d28       0x1a C:\Users\Nandi\AppData\Local\V.Micro\Arduino\Builds\sharpmem\Arduino_STM32_mapleMini/core.a(usart.c.o)
                0x08006d28                usart_tx
 .text.rb_push_insert
                0x08006d42       0x44 C:\Users\Nandi\AppData\Local\V.Micro\Arduino\Builds\sharpmem\Arduino_STM32_mapleMini/core.a(usart_f1.c.o)
 *fill*         0x08006d86        0x2 
 .text.__irq_usart1
                0x08006d88       0x1c C:\Users\Nandi\AppData\Local\V.Micro\Arduino\Builds\sharpmem\Arduino_STM32_mapleMini/core.a(usart_f1.c.o)
                0x08006d88                __irq_usart1
 .text.__irq_usart2
                0x08006da4       0x1c C:\Users\Nandi\AppData\Local\V.Micro\Arduino\Builds\sharpmem\Arduino_STM32_mapleMini/core.a(usart_f1.c.o)
                0x08006da4                __irq_usart2
 .text.__irq_usart3
                0x08006dc0       0x1c C:\Users\Nandi\AppData\Local\V.Micro\Arduino\Builds\sharpmem\Arduino_STM32_mapleMini/core.a(usart_f1.c.o)
                0x08006dc0                __irq_usart3
 .text.usb_resume
                0x08006ddc       0xb4 C:\Users\Nandi\AppData\Local\V.Micro\Arduino\Builds\sharpmem\Arduino_STM32_mapleMini/core.a(usb.c.o)
 .text.usb_init_usblib
                0x08006e90       0x48 C:\Users\Nandi\AppData\Local\V.Micro\Arduino\Builds\sharpmem\Arduino_STM32_mapleMini/core.a(usb.c.o)
                0x08006e90                usb_init_usblib
 .text.__irq_usb_lp_can_rx0
                0x08006ed8      0x1c8 C:\Users\Nandi\AppData\Local\V.Micro\Arduino\Builds\sharpmem\Arduino_STM32_mapleMini/core.a(usb.c.o)
                0x08006ed8                __irq_usb_lp_can_rx0
 .text.usb_set_ep_rx_stat
                0x080070a0       0x22 C:\Users\Nandi\AppData\Local\V.Micro\Arduino\Builds\sharpmem\Arduino_STM32_mapleMini/core.a(usb_cdcacm.c.o)
 *fill*         0x080070c2        0x2 
 .text.vcomDataTxCb
                0x080070c4       0x14 C:\Users\Nandi\AppData\Local\V.Micro\Arduino\Builds\sharpmem\Arduino_STM32_mapleMini/core.a(usb_cdcacm.c.o)
 .text.vcomGetSetLineCoding
                0x080070d8       0x18 C:\Users\Nandi\AppData\Local\V.Micro\Arduino\Builds\sharpmem\Arduino_STM32_mapleMini/core.a(usb_cdcacm.c.o)
 .text.usbDataSetup
                0x080070f0       0x54 C:\Users\Nandi\AppData\Local\V.Micro\Arduino\Builds\sharpmem\Arduino_STM32_mapleMini/core.a(usb_cdcacm.c.o)
 .text.usbNoDataSetup
                0x08007144       0x50 C:\Users\Nandi\AppData\Local\V.Micro\Arduino\Builds\sharpmem\Arduino_STM32_mapleMini/core.a(usb_cdcacm.c.o)
 .text.usbGetInterfaceSetting
                0x08007194       0x10 C:\Users\Nandi\AppData\Local\V.Micro\Arduino\Builds\sharpmem\Arduino_STM32_mapleMini/core.a(usb_cdcacm.c.o)
 .text.usbSetConfiguration
                0x080071a4       0x1c C:\Users\Nandi\AppData\Local\V.Micro\Arduino\Builds\sharpmem\Arduino_STM32_mapleMini/core.a(usb_cdcacm.c.o)
 .text.usbSetDeviceAddress
                0x080071c0       0x10 C:\Users\Nandi\AppData\Local\V.Micro\Arduino\Builds\sharpmem\Arduino_STM32_mapleMini/core.a(usb_cdcacm.c.o)
 .text.usbGetStringDescriptor
                0x080071d0       0x20 C:\Users\Nandi\AppData\Local\V.Micro\Arduino\Builds\sharpmem\Arduino_STM32_mapleMini/core.a(usb_cdcacm.c.o)
 .text.usbGetConfigDescriptor
                0x080071f0        0xc C:\Users\Nandi\AppData\Local\V.Micro\Arduino\Builds\sharpmem\Arduino_STM32_mapleMini/core.a(usb_cdcacm.c.o)
 .text.usbGetDeviceDescriptor
                0x080071fc        0xc C:\Users\Nandi\AppData\Local\V.Micro\Arduino\Builds\sharpmem\Arduino_STM32_mapleMini/core.a(usb_cdcacm.c.o)
 .text.usbInit  0x08007208       0x44 C:\Users\Nandi\AppData\Local\V.Micro\Arduino\Builds\sharpmem\Arduino_STM32_mapleMini/core.a(usb_cdcacm.c.o)
 .text.vcomDataRxCb
                0x0800724c       0x98 C:\Users\Nandi\AppData\Local\V.Micro\Arduino\Builds\sharpmem\Arduino_STM32_mapleMini/core.a(usb_cdcacm.c.o)
 .text.usbReset
                0x080072e4      0x158 C:\Users\Nandi\AppData\Local\V.Micro\Arduino\Builds\sharpmem\Arduino_STM32_mapleMini/core.a(usb_cdcacm.c.o)
 .text.usb_cdcacm_set_hooks
                0x0800743c       0x1c C:\Users\Nandi\AppData\Local\V.Micro\Arduino\Builds\sharpmem\Arduino_STM32_mapleMini/core.a(usb_cdcacm.c.o)
                0x0800743c                usb_cdcacm_set_hooks
 .text.usb_cdcacm_enable
                0x08007458       0x34 C:\Users\Nandi\AppData\Local\V.Micro\Arduino\Builds\sharpmem\Arduino_STM32_mapleMini/core.a(usb_cdcacm.c.o)
                0x08007458                usb_cdcacm_enable
 .text.usb_cdcacm_tx
                0x0800748c       0x60 C:\Users\Nandi\AppData\Local\V.Micro\Arduino\Builds\sharpmem\Arduino_STM32_mapleMini/core.a(usb_cdcacm.c.o)
                0x0800748c                usb_cdcacm_tx
 .text.usb_cdcacm_data_available
                0x080074ec        0xc C:\Users\Nandi\AppData\Local\V.Micro\Arduino\Builds\sharpmem\Arduino_STM32_mapleMini/core.a(usb_cdcacm.c.o)
                0x080074ec                usb_cdcacm_data_available
 .text.usb_cdcacm_is_transmitting
                0x080074f8        0xc C:\Users\Nandi\AppData\Local\V.Micro\Arduino\Builds\sharpmem\Arduino_STM32_mapleMini/core.a(usb_cdcacm.c.o)
                0x080074f8                usb_cdcacm_is_transmitting
 .text.usb_cdcacm_peek
                0x08007504       0x38 C:\Users\Nandi\AppData\Local\V.Micro\Arduino\Builds\sharpmem\Arduino_STM32_mapleMini/core.a(usb_cdcacm.c.o)
                0x08007504                usb_cdcacm_peek
 .text.usb_cdcacm_rx
                0x0800753c       0x44 C:\Users\Nandi\AppData\Local\V.Micro\Arduino\Builds\sharpmem\Arduino_STM32_mapleMini/core.a(usb_cdcacm.c.o)
                0x0800753c                usb_cdcacm_rx
 .text.usb_cdcacm_peek_ex
                0x08007580       0x44 C:\Users\Nandi\AppData\Local\V.Micro\Arduino\Builds\sharpmem\Arduino_STM32_mapleMini/core.a(usb_cdcacm.c.o)
                0x08007580                usb_cdcacm_peek_ex
 .text.usb_cdcacm_get_dtr
                0x080075c4       0x10 C:\Users\Nandi\AppData\Local\V.Micro\Arduino\Builds\sharpmem\Arduino_STM32_mapleMini/core.a(usb_cdcacm.c.o)
                0x080075c4                usb_cdcacm_get_dtr
 .text.usb_cdcacm_get_baud
                0x080075d4        0xc C:\Users\Nandi\AppData\Local\V.Micro\Arduino\Builds\sharpmem\Arduino_STM32_mapleMini/core.a(usb_cdcacm.c.o)
                0x080075d4                usb_cdcacm_get_baud
 .text.usb_set_ep_rx_count_common
                0x080075e0       0x26 C:\Users\Nandi\AppData\Local\V.Micro\Arduino\Builds\sharpmem\Arduino_STM32_mapleMini/core.a(usb_reg_map.c.o)
 .text.usb_copy_to_pma
                0x08007606       0x3e C:\Users\Nandi\AppData\Local\V.Micro\Arduino\Builds\sharpmem\Arduino_STM32_mapleMini/core.a(usb_reg_map.c.o)
                0x08007606                usb_copy_to_pma
 .text.usb_copy_from_pma
                0x08007644       0x30 C:\Users\Nandi\AppData\Local\V.Micro\Arduino\Builds\sharpmem\Arduino_STM32_mapleMini/core.a(usb_reg_map.c.o)
                0x08007644                usb_copy_from_pma
 .text.usb_set_ep_rx_count
                0x08007674       0x1c C:\Users\Nandi\AppData\Local\V.Micro\Arduino\Builds\sharpmem\Arduino_STM32_mapleMini/core.a(usb_reg_map.c.o)
                0x08007674                usb_set_ep_rx_count
 .text.Standard_GetConfiguration
                0x08007690       0x24 C:\Users\Nandi\AppData\Local\V.Micro\Arduino\Builds\sharpmem\Arduino_STM32_mapleMini/core.a(usb_core.c.o)
                0x08007690                Standard_GetConfiguration
 .text.Standard_GetInterface
                0x080076b4       0x24 C:\Users\Nandi\AppData\Local\V.Micro\Arduino\Builds\sharpmem\Arduino_STM32_mapleMini/core.a(usb_core.c.o)
                0x080076b4                Standard_GetInterface
 .text.Standard_GetStatus
                0x080076d8       0x90 C:\Users\Nandi\AppData\Local\V.Micro\Arduino\Builds\sharpmem\Arduino_STM32_mapleMini/core.a(usb_core.c.o)
                0x080076d8                Standard_GetStatus
 .text.DataStageIn
                0x08007768       0xa8 C:\Users\Nandi\AppData\Local\V.Micro\Arduino\Builds\sharpmem\Arduino_STM32_mapleMini/core.a(usb_core.c.o)
 .text.Standard_SetConfiguration
                0x08007810       0x38 C:\Users\Nandi\AppData\Local\V.Micro\Arduino\Builds\sharpmem\Arduino_STM32_mapleMini/core.a(usb_core.c.o)
                0x08007810                Standard_SetConfiguration
 .text.Standard_SetInterface
                0x08007848       0x48 C:\Users\Nandi\AppData\Local\V.Micro\Arduino\Builds\sharpmem\Arduino_STM32_mapleMini/core.a(usb_core.c.o)
                0x08007848                Standard_SetInterface
 .text.Standard_ClearFeature
                0x08007890       0xd0 C:\Users\Nandi\AppData\Local\V.Micro\Arduino\Builds\sharpmem\Arduino_STM32_mapleMini/core.a(usb_core.c.o)
                0x08007890                Standard_ClearFeature
 .text.Standard_SetEndPointFeature
                0x08007960       0x84 C:\Users\Nandi\AppData\Local\V.Micro\Arduino\Builds\sharpmem\Arduino_STM32_mapleMini/core.a(usb_core.c.o)
                0x08007960                Standard_SetEndPointFeature
 .text.Standard_SetDeviceFeature
                0x080079e4       0x24 C:\Users\Nandi\AppData\Local\V.Micro\Arduino\Builds\sharpmem\Arduino_STM32_mapleMini/core.a(usb_core.c.o)
                0x080079e4                Standard_SetDeviceFeature
 .text.Standard_GetDescriptorData
                0x08007a08       0x1c C:\Users\Nandi\AppData\Local\V.Micro\Arduino\Builds\sharpmem\Arduino_STM32_mapleMini/core.a(usb_core.c.o)
                0x08007a08                Standard_GetDescriptorData
 .text.Post0_Process
                0x08007a24       0x40 C:\Users\Nandi\AppData\Local\V.Micro\Arduino\Builds\sharpmem\Arduino_STM32_mapleMini/core.a(usb_core.c.o)
                0x08007a24                Post0_Process
 .text.Setup0_Process
                0x08007a64      0x2e8 C:\Users\Nandi\AppData\Local\V.Micro\Arduino\Builds\sharpmem\Arduino_STM32_mapleMini/core.a(usb_core.c.o)
                0x08007a64                Setup0_Process
 .text.Out0_Process
                0x08007d4c       0xc8 C:\Users\Nandi\AppData\Local\V.Micro\Arduino\Builds\sharpmem\Arduino_STM32_mapleMini/core.a(usb_core.c.o)
                0x08007d4c                Out0_Process
 .text.SetDeviceAddress
                0x08007e14       0x38 C:\Users\Nandi\AppData\Local\V.Micro\Arduino\Builds\sharpmem\Arduino_STM32_mapleMini/core.a(usb_core.c.o)
                0x08007e14                SetDeviceAddress
 .text.In0_Process
                0x08007e4c       0x5c C:\Users\Nandi\AppData\Local\V.Micro\Arduino\Builds\sharpmem\Arduino_STM32_mapleMini/core.a(usb_core.c.o)
                0x08007e4c                In0_Process
 .text.NOP_Process
                0x08007ea8        0x2 C:\Users\Nandi\AppData\Local\V.Micro\Arduino\Builds\sharpmem\Arduino_STM32_mapleMini/core.a(usb_core.c.o)
                0x08007ea8                NOP_Process
 .text.UserToPMABufferCopy
                0x08007eaa       0x30 C:\Users\Nandi\AppData\Local\V.Micro\Arduino\Builds\sharpmem\Arduino_STM32_mapleMini/core.a(usb_mem.c.o)
                0x08007eaa                UserToPMABufferCopy
 .text.PMAToUserBufferCopy
                0x08007eda       0x24 C:\Users\Nandi\AppData\Local\V.Micro\Arduino\Builds\sharpmem\Arduino_STM32_mapleMini/core.a(usb_mem.c.o)
                0x08007eda                PMAToUserBufferCopy
 .text.SetEPTxStatus
                0x08007efe       0x2a C:\Users\Nandi\AppData\Local\V.Micro\Arduino\Builds\sharpmem\Arduino_STM32_mapleMini/core.a(usb_regs.c.o)
                0x08007efe                SetEPTxStatus
 .text.ClearDTOG_RX
                0x08007f28       0x20 C:\Users\Nandi\AppData\Local\V.Micro\Arduino\Builds\sharpmem\Arduino_STM32_mapleMini/core.a(usb_regs.c.o)
                0x08007f28                ClearDTOG_RX
 .text.ClearDTOG_TX
                0x08007f48       0x20 C:\Users\Nandi\AppData\Local\V.Micro\Arduino\Builds\sharpmem\Arduino_STM32_mapleMini/core.a(usb_regs.c.o)
                0x08007f48                ClearDTOG_TX
 .text.GetEPTxAddr
                0x08007f68       0x1c C:\Users\Nandi\AppData\Local\V.Micro\Arduino\Builds\sharpmem\Arduino_STM32_mapleMini/core.a(usb_regs.c.o)
                0x08007f68                GetEPTxAddr
 .text.GetEPRxAddr
                0x08007f84       0x1c C:\Users\Nandi\AppData\Local\V.Micro\Arduino\Builds\sharpmem\Arduino_STM32_mapleMini/core.a(usb_regs.c.o)
                0x08007f84                GetEPRxAddr
 .text.SetEPTxCount
                0x08007fa0       0x1c C:\Users\Nandi\AppData\Local\V.Micro\Arduino\Builds\sharpmem\Arduino_STM32_mapleMini/core.a(usb_regs.c.o)
                0x08007fa0                SetEPTxCount
 .text.SetEPRxCount
                0x08007fbc       0x40 C:\Users\Nandi\AppData\Local\V.Micro\Arduino\Builds\sharpmem\Arduino_STM32_mapleMini/core.a(usb_regs.c.o)
                0x08007fbc                SetEPRxCount
 .text.ByteSwap
                0x08007ffc        0xa C:\Users\Nandi\AppData\Local\V.Micro\Arduino\Builds\sharpmem\Arduino_STM32_mapleMini/core.a(usb_regs.c.o)
                0x08007ffc                ByteSwap
 .text._ZN14HardwareSerial4readEv
                0x08008006       0x2c C:\Users\Nandi\AppData\Local\V.Micro\Arduino\Builds\sharpmem\Arduino_STM32_mapleMini/core.a(HardwareSerial.cpp.o)
                0x08008006                HardwareSerial::read()
 .text._ZN14HardwareSerial9availableEv
                0x08008032       0x26 C:\Users\Nandi\AppData\Local\V.Micro\Arduino\Builds\sharpmem\Arduino_STM32_mapleMini/core.a(HardwareSerial.cpp.o)
                0x08008032                HardwareSerial::available()
 .text._ZN14HardwareSerial4peekEv
                0x08008058       0x18 C:\Users\Nandi\AppData\Local\V.Micro\Arduino\Builds\sharpmem\Arduino_STM32_mapleMini/core.a(HardwareSerial.cpp.o)
                0x08008058                HardwareSerial::peek()
 .text._ZN14HardwareSerial5flushEv
                0x08008070        0xa C:\Users\Nandi\AppData\Local\V.Micro\Arduino\Builds\sharpmem\Arduino_STM32_mapleMini/core.a(HardwareSerial.cpp.o)
                0x08008070                HardwareSerial::flush()
 .text._ZN14HardwareSerial5writeEh
                0x0800807a       0x1e C:\Users\Nandi\AppData\Local\V.Micro\Arduino\Builds\sharpmem\Arduino_STM32_mapleMini/core.a(HardwareSerial.cpp.o)
                0x0800807a                HardwareSerial::write(unsigned char)
 .text._ZN14HardwareSerialC2EP9usart_devhh
                0x08008098       0x1c C:\Users\Nandi\AppData\Local\V.Micro\Arduino\Builds\sharpmem\Arduino_STM32_mapleMini/core.a(HardwareSerial.cpp.o)
                0x08008098                HardwareSerial::HardwareSerial(usart_dev*, unsigned char, unsigned char)
                0x08008098                HardwareSerial::HardwareSerial(usart_dev*, unsigned char, unsigned char)
 .text._Z17disableDebugPortsv
                0x080080b4       0x14 C:\Users\Nandi\AppData\Local\V.Micro\Arduino\Builds\sharpmem\Arduino_STM32_mapleMini/core.a(wirish_debug.cpp.o)
                0x080080b4                disableDebugPorts()
 .text.gpio_init
                0x080080c8       0x14 C:\Users\Nandi\AppData\Local\V.Micro\Arduino\Builds\sharpmem\Arduino_STM32_mapleMini/core.a(gpio.c.o)
                0x080080c8                gpio_init
 .text          0x080080dc      0x370 c:/users/nandi/appdata/roaming/arduino15/packages/arduino/tools/arm-none-eabi-gcc/4.8.3-2014q1/bin/../lib/gcc/arm-none-eabi/4.8.3/armv7-m\libgcc.a(_arm_addsubdf3.o)
                0x080080dc                __aeabi_drsub
                0x080080e4                __aeabi_dsub
                0x080080e4                __subdf3
                0x080080e8                __aeabi_dadd
                0x080080e8                __adddf3
                0x08008360                __floatunsidf
                0x08008360                __aeabi_ui2d
                0x08008380                __floatsidf
                0x08008380                __aeabi_i2d
                0x080083a4                __aeabi_f2d
                0x080083a4                __extendsfdf2
                0x080083e0                __floatundidf
                0x080083e0                __aeabi_ul2d
                0x080083f0                __floatdidf
                0x080083f0                __aeabi_l2d
 .text          0x0800844c      0x424 c:/users/nandi/appdata/roaming/arduino15/packages/arduino/tools/arm-none-eabi-gcc/4.8.3-2014q1/bin/../lib/gcc/arm-none-eabi/4.8.3/armv7-m\libgcc.a(_arm_muldivdf3.o)
                0x0800844c                __aeabi_dmul
                0x0800844c                __muldf3
                0x080086a0                __divdf3
                0x080086a0                __aeabi_ddiv
 .text          0x08008870       0xa0 c:/users/nandi/appdata/roaming/arduino15/packages/arduino/tools/arm-none-eabi-gcc/4.8.3-2014q1/bin/../lib/gcc/arm-none-eabi/4.8.3/armv7-m\libgcc.a(_arm_truncdfsf2.o)
                0x08008870                __truncdfsf2
                0x08008870                __aeabi_d2f
 .text          0x08008910      0x21c c:/users/nandi/appdata/roaming/arduino15/packages/arduino/tools/arm-none-eabi-gcc/4.8.3-2014q1/bin/../lib/gcc/arm-none-eabi/4.8.3/armv7-m\libgcc.a(_arm_addsubsf3.o)
                0x08008910                __aeabi_frsub
                0x08008918                __subsf3
                0x08008918                __aeabi_fsub
                0x0800891c                __aeabi_fadd
                0x0800891c                __addsf3
                0x08008a7c                __aeabi_ui2f
                0x08008a7c                __floatunsisf
                0x08008a84                __aeabi_i2f
                0x08008a84                __floatsisf
                0x08008aa0                __aeabi_ul2f
                0x08008aa0                __floatundisf
                0x08008ab0                __aeabi_l2f
                0x08008ab0                __floatdisf
 .text          0x08008b2c      0x2a0 c:/users/nandi/appdata/roaming/arduino15/packages/arduino/tools/arm-none-eabi-gcc/4.8.3-2014q1/bin/../lib/gcc/arm-none-eabi/4.8.3/armv7-m\libgcc.a(_arm_muldivsf3.o)
                0x08008b2c                __mulsf3
                0x08008b2c                __aeabi_fmul
                0x08008c94                __aeabi_fdiv
                0x08008c94                __divsf3
 .text          0x08008dcc       0xec c:/users/nandi/appdata/roaming/arduino15/packages/arduino/tools/arm-none-eabi-gcc/4.8.3-2014q1/bin/../lib/gcc/arm-none-eabi/4.8.3/armv7-m\libgcc.a(_arm_cmpsf2.o)
                0x08008dcc                __gesf2
                0x08008dcc                __gtsf2
                0x08008dd4                __lesf2
                0x08008dd4                __ltsf2
                0x08008ddc                __nesf2
                0x08008ddc                __eqsf2
                0x08008ddc                __cmpsf2
                0x08008e3c                __aeabi_cfrcmple
                0x08008e44                __aeabi_cfcmpeq
                0x08008e44                __aeabi_cfcmple
                0x08008e54                __aeabi_fcmpeq
                0x08008e68                __aeabi_fcmplt
                0x08008e7c                __aeabi_fcmple
                0x08008e90                __aeabi_fcmpge
                0x08008ea4                __aeabi_fcmpgt
 .text          0x08008eb8       0x4c c:/users/nandi/appdata/roaming/arduino15/packages/arduino/tools/arm-none-eabi-gcc/4.8.3-2014q1/bin/../lib/gcc/arm-none-eabi/4.8.3/armv7-m\libgcc.a(_arm_fixsfsi.o)
                0x08008eb8                __aeabi_f2iz
                0x08008eb8                __fixsfsi
 .text          0x08008f04       0x2c c:/users/nandi/appdata/roaming/arduino15/packages/arduino/tools/arm-none-eabi-gcc/4.8.3-2014q1/bin/../lib/gcc/arm-none-eabi/4.8.3/armv7-m\libgcc.a(_aeabi_uldivmod.o)
                0x08008f04                __aeabi_uldivmod
 .text          0x08008f30       0x60 c:/users/nandi/appdata/roaming/arduino15/packages/arduino/tools/arm-none-eabi-gcc/4.8.3-2014q1/bin/../lib/gcc/arm-none-eabi/4.8.3/armv7-m\libgcc.a(bpabi.o)
                0x08008f30                __gnu_ldivmod_helper
                0x08008f60                __gnu_uldivmod_helper
 .text          0x08008f90        0x4 c:/users/nandi/appdata/roaming/arduino15/packages/arduino/tools/arm-none-eabi-gcc/4.8.3-2014q1/bin/../lib/gcc/arm-none-eabi/4.8.3/armv7-m\libgcc.a(_dvmd_tls.o)
                0x08008f90                __aeabi_idiv0
                0x08008f90                __aeabi_ldiv0
 .text          0x08008f94      0x2a0 c:/users/nandi/appdata/roaming/arduino15/packages/arduino/tools/arm-none-eabi-gcc/4.8.3-2014q1/bin/../lib/gcc/arm-none-eabi/4.8.3/armv7-m\libgcc.a(_divdi3.o)
                0x08008f94                __divdi3
 .text          0x08009234      0x290 c:/users/nandi/appdata/roaming/arduino15/packages/arduino/tools/arm-none-eabi-gcc/4.8.3-2014q1/bin/../lib/gcc/arm-none-eabi/4.8.3/armv7-m\libgcc.a(_udivdi3.o)
                0x08009234                __udivdi3
 .text.exit     0x080094c4       0x20 c:/users/nandi/appdata/roaming/arduino15/packages/arduino/tools/arm-none-eabi-gcc/4.8.3-2014q1/bin/../lib/gcc/arm-none-eabi/4.8.3/../../../../arm-none-eabi/lib/armv7-m\libc.a(lib_a-exit.o)
                0x080094c4                exit
 .text.__libc_init_array
                0x080094e4       0x50 c:/users/nandi/appdata/roaming/arduino15/packages/arduino/tools/arm-none-eabi-gcc/4.8.3-2014q1/bin/../lib/gcc/arm-none-eabi/4.8.3/../../../../arm-none-eabi/lib/armv7-m\libc.a(lib_a-init.o)
                0x080094e4                __libc_init_array
 .text.memset   0x08009534       0x94 c:/users/nandi/appdata/roaming/arduino15/packages/arduino/tools/arm-none-eabi-gcc/4.8.3-2014q1/bin/../lib/gcc/arm-none-eabi/4.8.3/../../../../arm-none-eabi/lib/armv7-m\libc.a(lib_a-memset.o)
                0x08009534                memset
 .text.rand     0x080095c8       0x40 c:/users/nandi/appdata/roaming/arduino15/packages/arduino/tools/arm-none-eabi-gcc/4.8.3-2014q1/bin/../lib/gcc/arm-none-eabi/4.8.3/../../../../arm-none-eabi/lib/armv7-m\libc.a(lib_a-rand.o)
                0x080095c8                rand
 .text.strlen   0x08009608       0x60 c:/users/nandi/appdata/roaming/arduino15/packages/arduino/tools/arm-none-eabi-gcc/4.8.3-2014q1/bin/../lib/gcc/arm-none-eabi/4.8.3/../../../../arm-none-eabi/lib/armv7-m\libc.a(lib_a-strlen.o)
                0x08009608                strlen
 .text.startup.register_fini
                0x08009668       0x14 c:/users/nandi/appdata/roaming/arduino15/packages/arduino/tools/arm-none-eabi-gcc/4.8.3-2014q1/bin/../lib/gcc/arm-none-eabi/4.8.3/../../../../arm-none-eabi/lib/armv7-m\libc.a(lib_a-__call_atexit.o)
 .text.__call_exitprocs
                0x0800967c       0xf0 c:/users/nandi/appdata/roaming/arduino15/packages/arduino/tools/arm-none-eabi-gcc/4.8.3-2014q1/bin/../lib/gcc/arm-none-eabi/4.8.3/../../../../arm-none-eabi/lib/armv7-m\libc.a(lib_a-__call_atexit.o)
                0x0800967c                __call_exitprocs
 .text.atexit   0x0800976c        0xc c:/users/nandi/appdata/roaming/arduino15/packages/arduino/tools/arm-none-eabi-gcc/4.8.3-2014q1/bin/../lib/gcc/arm-none-eabi/4.8.3/../../../../arm-none-eabi/lib/armv7-m\libc.a(lib_a-atexit.o)
                0x0800976c                atexit
 .text.__libc_fini_array
                0x08009778       0x30 c:/users/nandi/appdata/roaming/arduino15/packages/arduino/tools/arm-none-eabi-gcc/4.8.3-2014q1/bin/../lib/gcc/arm-none-eabi/4.8.3/../../../../arm-none-eabi/lib/armv7-m\libc.a(lib_a-fini.o)
                0x08009778                __libc_fini_array
 .text.__register_exitproc
                0x080097a8       0xa8 c:/users/nandi/appdata/roaming/arduino15/packages/arduino/tools/arm-none-eabi-gcc/4.8.3-2014q1/bin/../lib/gcc/arm-none-eabi/4.8.3/../../../../arm-none-eabi/lib/armv7-m\libc.a(lib_a-__atexit.o)
                0x080097a8                __register_exitproc
 .text._exit    0x08009850        0x4 c:/users/nandi/appdata/roaming/arduino15/packages/arduino/tools/arm-none-eabi-gcc/4.8.3-2014q1/bin/../lib/gcc/arm-none-eabi/4.8.3/../../../../arm-none-eabi/lib/armv7-m\libnosys.a(_exit.o)
                0x08009850                _exit
 *(.plt)
 *(.gnu.warning)
 *(.glue_7t)
 .glue_7t       0x00000000        0x0 linker stubs
 *(.glue_7)
 .glue_7        0x00000000        0x0 linker stubs
 *(.vfp11_veneer)
 .vfp11_veneer  0x00000000        0x0 linker stubs
 *(.ARM.extab* .gnu.linkonce.armextab.*)
 *(.gcc_except_table)
 *(.eh_frame_hdr)
 *(.eh_frame)
 .eh_frame      0x08009854        0x0 c:/users/nandi/appdata/roaming/arduino15/packages/arduino/tools/arm-none-eabi-gcc/4.8.3-2014q1/bin/../lib/gcc/arm-none-eabi/4.8.3/armv7-m/crtbegin.o
                0x08009854                . = ALIGN (0x4)
 *(.init)
 .init          0x08009854        0x4 c:/users/nandi/appdata/roaming/arduino15/packages/arduino/tools/arm-none-eabi-gcc/4.8.3-2014q1/bin/../lib/gcc/arm-none-eabi/4.8.3/armv7-m/crti.o
                0x08009854                _init
 .init          0x08009858        0x8 c:/users/nandi/appdata/roaming/arduino15/packages/arduino/tools/arm-none-eabi-gcc/4.8.3-2014q1/bin/../lib/gcc/arm-none-eabi/4.8.3/armv7-m/crtn.o
                0x08009860                . = ALIGN (0x4)
                0x08009860                __preinit_array_start = .
 *(.preinit_array)
                0x08009860                __preinit_array_end = .
                0x08009860                . = ALIGN (0x4)
                0x08009860                __init_array_start = .
 *(SORT(.init_array.*))
 .init_array.00000
                0x08009860        0x4 c:/users/nandi/appdata/roaming/arduino15/packages/arduino/tools/arm-none-eabi-gcc/4.8.3-2014q1/bin/../lib/gcc/arm-none-eabi/4.8.3/../../../../arm-none-eabi/lib/armv7-m\libc.a(lib_a-__call_atexit.o)
 .init_array.00101
                0x08009864        0x4 C:\Users\Nandi\AppData\Local\V.Micro\Arduino\Builds\sharpmem\Arduino_STM32_mapleMini/core.a(main.cpp.o)
 *(.init_array)
 .init_array    0x08009868        0x4 c:/users/nandi/appdata/roaming/arduino15/packages/arduino/tools/arm-none-eabi-gcc/4.8.3-2014q1/bin/../lib/gcc/arm-none-eabi/4.8.3/armv7-m/crtbegin.o
 .init_array    0x0800986c        0x4 C:\Users\Nandi\AppData\Local\V.Micro\Arduino\Builds\sharpmem\Arduino_STM32_mapleMini\sharpmem.cpp.o
 .init_array    0x08009870        0x4 C:\Users\Nandi\AppData\Local\V.Micro\Arduino\Builds\sharpmem\Arduino_STM32_mapleMini\SPI\SPI.cpp.o
 .init_array    0x08009874        0x4 C:\Users\Nandi\AppData\Local\V.Micro\Arduino\Builds\sharpmem\Arduino_STM32_mapleMini/core.a(usb_serial.cpp.o)
 .init_array    0x08009878        0x4 C:\Users\Nandi\AppData\Local\V.Micro\Arduino\Builds\sharpmem\Arduino_STM32_mapleMini/core.a(board.cpp.o)
                0x0800987c                __init_array_end = .
                0x0800987c                . = ALIGN (0x4)
 *crtbegin.o(.ctors)
 *(EXCLUDE_FILE(*crtend.o) .ctors)
 *(SORT(.ctors.*))
 *crtend.o(.ctors)
                0x0800987c                . = ALIGN (0x4)
 *(.fini)
 .fini          0x0800987c        0x4 c:/users/nandi/appdata/roaming/arduino15/packages/arduino/tools/arm-none-eabi-gcc/4.8.3-2014q1/bin/../lib/gcc/arm-none-eabi/4.8.3/armv7-m/crti.o
                0x0800987c                _fini
 .fini          0x08009880        0x8 c:/users/nandi/appdata/roaming/arduino15/packages/arduino/tools/arm-none-eabi-gcc/4.8.3-2014q1/bin/../lib/gcc/arm-none-eabi/4.8.3/armv7-m/crtn.o
                0x08009888                . = ALIGN (0x4)
                0x08009888                __fini_array_start = .
 *(.fini_array)
 .fini_array    0x08009888        0x4 c:/users/nandi/appdata/roaming/arduino15/packages/arduino/tools/arm-none-eabi-gcc/4.8.3-2014q1/bin/../lib/gcc/arm-none-eabi/4.8.3/armv7-m/crtbegin.o
 *(SORT(.fini_array.*))
                0x0800988c                __fini_array_end = .
 *crtbegin.o(.dtors)
 *(EXCLUDE_FILE(*crtend.o) .dtors)
 *(SORT(.dtors.*))
 *crtend.o(.dtors)

.v4_bx          0x0800988c        0x0
 .v4_bx         0x00000000        0x0 linker stubs

.iplt           0x0800988c        0x0
 .iplt          0x00000000        0x0 c:/users/nandi/appdata/roaming/arduino15/packages/arduino/tools/arm-none-eabi-gcc/4.8.3-2014q1/bin/../lib/gcc/arm-none-eabi/4.8.3/armv7-m/crtbegin.o

.text.align     0x0800988c        0x4
                0x08009890                . = ALIGN (0x8)
 *fill*         0x0800988c        0x4 
                0x08009890                __text_end__ = .
                0x08009890                __exidx_start = .

.ARM.exidx      0x08009890        0x8
 *(.ARM.exidx* .gnu.linkonce.armexidx.*)
 .ARM.exidx     0x08009890        0x8 C:\Users\Nandi\AppData\Local\V.Micro\Arduino\Builds\sharpmem\Arduino_STM32_mapleMini/core.a(start.S.o)
 .ARM.exidx     0x08009898        0x0 c:/users/nandi/appdata/roaming/arduino15/packages/arduino/tools/arm-none-eabi-gcc/4.8.3-2014q1/bin/../lib/gcc/arm-none-eabi/4.8.3/armv7-m\libgcc.a(_divdi3.o)
                                  0x8 (size before relaxing)
 .ARM.exidx     0x08009898        0x0 c:/users/nandi/appdata/roaming/arduino15/packages/arduino/tools/arm-none-eabi-gcc/4.8.3-2014q1/bin/../lib/gcc/arm-none-eabi/4.8.3/armv7-m\libgcc.a(_udivdi3.o)
                                  0x8 (size before relaxing)
                0x08009898                __exidx_end = .

.data           0x20000c00      0x760 load address 0x08009898
                0x20000c00                __data_start__ = .
                0x20000c00        0x4 LONG 0x0
                0x20000c08                . = ALIGN (0x8)
 *fill*         0x20000c04        0x4 
 *(.got.plt)
 *(.got)
 *(.data .data.* .gnu.linkonce.d.*)
 .data.dma1     0x20000c08       0x40 C:\Users\Nandi\AppData\Local\V.Micro\Arduino\Builds\sharpmem\Arduino_STM32_mapleMini/core.a(dma_f1.c.o)
 .data.DMA1     0x20000c48        0x4 C:\Users\Nandi\AppData\Local\V.Micro\Arduino\Builds\sharpmem\Arduino_STM32_mapleMini/core.a(dma_f1.c.o)
                0x20000c48                DMA1
 .data.reset_regs.4413
                0x20000c4c        0x8 C:\Users\Nandi\AppData\Local\V.Micro\Arduino\Builds\sharpmem\Arduino_STM32_mapleMini/core.a(rcc_f1.c.o)
 .data.enable_regs.4409
                0x20000c54        0xc C:\Users\Nandi\AppData\Local\V.Micro\Arduino\Builds\sharpmem\Arduino_STM32_mapleMini/core.a(rcc_f1.c.o)
 .data.enable_regs.4422
                0x20000c60        0xc C:\Users\Nandi\AppData\Local\V.Micro\Arduino\Builds\sharpmem\Arduino_STM32_mapleMini/core.a(rcc_f1.c.o)
 .data.spi1     0x20000c6c        0x8 C:\Users\Nandi\AppData\Local\V.Micro\Arduino\Builds\sharpmem\Arduino_STM32_mapleMini/core.a(spi_f1.c.o)
 .data.spi2     0x20000c74        0x8 C:\Users\Nandi\AppData\Local\V.Micro\Arduino\Builds\sharpmem\Arduino_STM32_mapleMini/core.a(spi_f1.c.o)
 .data.SPI1     0x20000c7c        0x4 C:\Users\Nandi\AppData\Local\V.Micro\Arduino\Builds\sharpmem\Arduino_STM32_mapleMini/core.a(spi_f1.c.o)
                0x20000c7c                SPI1
 .data.SPI2     0x20000c80        0x4 C:\Users\Nandi\AppData\Local\V.Micro\Arduino\Builds\sharpmem\Arduino_STM32_mapleMini/core.a(spi_f1.c.o)
                0x20000c80                SPI2
 .data.timer3   0x20000c84       0x24 C:\Users\Nandi\AppData\Local\V.Micro\Arduino\Builds\sharpmem\Arduino_STM32_mapleMini/core.a(timer.c.o)
                0x20000c84                timer3
 .data.timer4   0x20000ca8       0x24 C:\Users\Nandi\AppData\Local\V.Micro\Arduino\Builds\sharpmem\Arduino_STM32_mapleMini/core.a(timer.c.o)
                0x20000ca8                timer4
 .data.timer1   0x20000ccc       0x28 C:\Users\Nandi\AppData\Local\V.Micro\Arduino\Builds\sharpmem\Arduino_STM32_mapleMini/core.a(timer.c.o)
                0x20000ccc                timer1
 .data.timer2   0x20000cf4       0x24 C:\Users\Nandi\AppData\Local\V.Micro\Arduino\Builds\sharpmem\Arduino_STM32_mapleMini/core.a(timer.c.o)
                0x20000cf4                timer2
 .data._ZN6wirish4privL8pll_dataE
                0x20000d18        0x4 C:\Users\Nandi\AppData\Local\V.Micro\Arduino\Builds\sharpmem\Arduino_STM32_mapleMini/core.a(boards_setup.cpp.o)
 .data._ZN6wirish4priv9w_adc_smpE
                0x20000d1c        0x1 C:\Users\Nandi\AppData\Local\V.Micro\Arduino\Builds\sharpmem\Arduino_STM32_mapleMini/core.a(boards_setup.cpp.o)
                0x20000d1c                wirish::priv::w_adc_smp
 *fill*         0x20000d1d        0x1 
 .data._ZN6wirish4priv9w_adc_preE
                0x20000d1e        0x2 C:\Users\Nandi\AppData\Local\V.Micro\Arduino\Builds\sharpmem\Arduino_STM32_mapleMini/core.a(boards_setup.cpp.o)
                0x20000d1e                wirish::priv::w_adc_pre
 .data._ZN6wirish4priv15w_board_pll_cfgE
                0x20000d20        0x8 C:\Users\Nandi\AppData\Local\V.Micro\Arduino\Builds\sharpmem\Arduino_STM32_mapleMini/core.a(boards_setup.cpp.o)
                0x20000d20                wirish::priv::w_board_pll_cfg
 .data.adc2     0x20000d28        0x8 C:\Users\Nandi\AppData\Local\V.Micro\Arduino\Builds\sharpmem\Arduino_STM32_mapleMini/core.a(adc_f1.c.o)
                0x20000d28                adc2
 .data.adc1     0x20000d30        0x8 C:\Users\Nandi\AppData\Local\V.Micro\Arduino\Builds\sharpmem\Arduino_STM32_mapleMini/core.a(adc_f1.c.o)
                0x20000d30                adc1
 .data.ADC2     0x20000d38        0x4 C:\Users\Nandi\AppData\Local\V.Micro\Arduino\Builds\sharpmem\Arduino_STM32_mapleMini/core.a(adc_f1.c.o)
                0x20000d38                ADC2
 .data.ADC1     0x20000d3c        0x4 C:\Users\Nandi\AppData\Local\V.Micro\Arduino\Builds\sharpmem\Arduino_STM32_mapleMini/core.a(adc_f1.c.o)
                0x20000d3c                ADC1
 .data.gpioa    0x20000d40        0x8 C:\Users\Nandi\AppData\Local\V.Micro\Arduino\Builds\sharpmem\Arduino_STM32_mapleMini/core.a(gpio_f1.c.o)
                0x20000d40                gpioa
 .data.gpiob    0x20000d48        0x8 C:\Users\Nandi\AppData\Local\V.Micro\Arduino\Builds\sharpmem\Arduino_STM32_mapleMini/core.a(gpio_f1.c.o)
                0x20000d48                gpiob
 .data.gpioc    0x20000d50        0x8 C:\Users\Nandi\AppData\Local\V.Micro\Arduino\Builds\sharpmem\Arduino_STM32_mapleMini/core.a(gpio_f1.c.o)
                0x20000d50                gpioc
 .data.gpiod    0x20000d58        0x8 C:\Users\Nandi\AppData\Local\V.Micro\Arduino\Builds\sharpmem\Arduino_STM32_mapleMini/core.a(gpio_f1.c.o)
                0x20000d58                gpiod
 .data.USART1   0x20000d60        0x4 C:\Users\Nandi\AppData\Local\V.Micro\Arduino\Builds\sharpmem\Arduino_STM32_mapleMini/core.a(usart_f1.c.o)
                0x20000d60                USART1
 .data.USART2   0x20000d64        0x4 C:\Users\Nandi\AppData\Local\V.Micro\Arduino\Builds\sharpmem\Arduino_STM32_mapleMini/core.a(usart_f1.c.o)
                0x20000d64                USART2
 .data.USART3   0x20000d68        0x4 C:\Users\Nandi\AppData\Local\V.Micro\Arduino\Builds\sharpmem\Arduino_STM32_mapleMini/core.a(usart_f1.c.o)
                0x20000d68                USART3
 .data.usart1   0x20000d6c       0x50 C:\Users\Nandi\AppData\Local\V.Micro\Arduino\Builds\sharpmem\Arduino_STM32_mapleMini/core.a(usart_f1.c.o)
 .data.usart2   0x20000dbc       0x50 C:\Users\Nandi\AppData\Local\V.Micro\Arduino\Builds\sharpmem\Arduino_STM32_mapleMini/core.a(usart_f1.c.o)
 .data.usart3   0x20000e0c       0x50 C:\Users\Nandi\AppData\Local\V.Micro\Arduino\Builds\sharpmem\Arduino_STM32_mapleMini/core.a(usart_f1.c.o)
 .data.USBLIB   0x20000e5c        0x4 C:\Users\Nandi\AppData\Local\V.Micro\Arduino\Builds\sharpmem\Arduino_STM32_mapleMini/core.a(usb.c.o)
                0x20000e5c                USBLIB
 .data.usblib   0x20000e60       0x10 C:\Users\Nandi\AppData\Local\V.Micro\Arduino\Builds\sharpmem\Arduino_STM32_mapleMini/core.a(usb.c.o)
 .data.Config_Descriptor
                0x20000e70        0x8 C:\Users\Nandi\AppData\Local\V.Micro\Arduino\Builds\sharpmem\Arduino_STM32_mapleMini/core.a(usb_cdcacm.c.o)
 .data.Device_Property
                0x20000e78       0x30 C:\Users\Nandi\AppData\Local\V.Micro\Arduino\Builds\sharpmem\Arduino_STM32_mapleMini/core.a(usb_cdcacm.c.o)
                0x20000e78                Device_Property
 .data.ep_int_in
                0x20000ea8       0x1c C:\Users\Nandi\AppData\Local\V.Micro\Arduino\Builds\sharpmem\Arduino_STM32_mapleMini/core.a(usb_cdcacm.c.o)
 .data.String_Descriptor
                0x20000ec4       0x18 C:\Users\Nandi\AppData\Local\V.Micro\Arduino\Builds\sharpmem\Arduino_STM32_mapleMini/core.a(usb_cdcacm.c.o)
 .data.ep_int_out
                0x20000edc       0x1c C:\Users\Nandi\AppData\Local\V.Micro\Arduino\Builds\sharpmem\Arduino_STM32_mapleMini/core.a(usb_cdcacm.c.o)
 .data.line_coding
                0x20000ef8        0x7 C:\Users\Nandi\AppData\Local\V.Micro\Arduino\Builds\sharpmem\Arduino_STM32_mapleMini/core.a(usb_cdcacm.c.o)
 *fill*         0x20000eff        0x1 
 .data.User_Standard_Requests
                0x20000f00       0x24 C:\Users\Nandi\AppData\Local\V.Micro\Arduino\Builds\sharpmem\Arduino_STM32_mapleMini/core.a(usb_cdcacm.c.o)
                0x20000f00                User_Standard_Requests
 .data.Device_Descriptor
                0x20000f24        0x8 C:\Users\Nandi\AppData\Local\V.Micro\Arduino\Builds\sharpmem\Arduino_STM32_mapleMini/core.a(usb_cdcacm.c.o)
 .data.Device_Table
                0x20000f2c        0x2 C:\Users\Nandi\AppData\Local\V.Micro\Arduino\Builds\sharpmem\Arduino_STM32_mapleMini/core.a(usb_cdcacm.c.o)
                0x20000f2c                Device_Table
 *fill*         0x20000f2e        0x2 
 .data.impure_data
                0x20000f30      0x428 c:/users/nandi/appdata/roaming/arduino15/packages/arduino/tools/arm-none-eabi-gcc/4.8.3-2014q1/bin/../lib/gcc/arm-none-eabi/4.8.3/../../../../arm-none-eabi/lib/armv7-m\libc.a(lib_a-impure.o)
 .data._impure_ptr
                0x20001358        0x4 c:/users/nandi/appdata/roaming/arduino15/packages/arduino/tools/arm-none-eabi-gcc/4.8.3-2014q1/bin/../lib/gcc/arm-none-eabi/4.8.3/../../../../arm-none-eabi/lib/armv7-m\libc.a(lib_a-impure.o)
                0x20001358                _impure_ptr
                0x20001360                . = ALIGN (0x8)
 *fill*         0x2000135c        0x4 
                0x20001360                __data_end__ = .

.jcr            0x20001360        0x0 load address 0x08009ff8
 .jcr           0x20001360        0x0 c:/users/nandi/appdata/roaming/arduino15/packages/arduino/tools/arm-none-eabi-gcc/4.8.3-2014q1/bin/../lib/gcc/arm-none-eabi/4.8.3/armv7-m/crtbegin.o

.igot.plt       0x20001360        0x0 load address 0x08009ff8
 .igot.plt      0x00000000        0x0 c:/users/nandi/appdata/roaming/arduino15/packages/arduino/tools/arm-none-eabi-gcc/4.8.3-2014q1/bin/../lib/gcc/arm-none-eabi/4.8.3/armv7-m/crtbegin.o

.rodata         0x08009ff8      0x914
 *(.rodata .rodata.* .gnu.linkonce.r.*)
 .rodata.str1.1
                0x08009ff8       0x14 C:\Users\Nandi\AppData\Local\V.Micro\Arduino\Builds\sharpmem\Arduino_STM32_mapleMini\sharpmem.cpp.o
 *fill*         0x0800a00c        0x4 
 .rodata._ZTV12Adafruit_GFX
                0x0800a010       0x38 C:\Users\Nandi\AppData\Local\V.Micro\Arduino\Builds\sharpmem\Arduino_STM32_mapleMini\Adafruit-GFX-Library-master\Adafruit_GFX.cpp.o
                0x0800a010                vtable for Adafruit_GFX
 .rodata._ZL4font
                0x0800a048      0x500 C:\Users\Nandi\AppData\Local\V.Micro\Arduino\Builds\sharpmem\Arduino_STM32_mapleMini\Adafruit-GFX-Library-master\Adafruit_GFX.cpp.o
 .rodata.str1.1
                0x0800a548        0xb C:\Users\Nandi\AppData\Local\V.Micro\Arduino\Builds\sharpmem\Arduino_STM32_mapleMini\SharpMemSTM32.cpp.o
 *fill*         0x0800a553        0x5 
 .rodata._ZTV8SharpMem
                0x0800a558       0x38 C:\Users\Nandi\AppData\Local\V.Micro\Arduino\Builds\sharpmem\Arduino_STM32_mapleMini\SharpMemSTM32.cpp.o
                0x0800a558                vtable for SharpMem
 .rodata.rcc_dev_table
                0x0800a590       0x5c C:\Users\Nandi\AppData\Local\V.Micro\Arduino\Builds\sharpmem\Arduino_STM32_mapleMini/core.a(rcc_f1.c.o)
                0x0800a590                rcc_dev_table
 .rodata.masks.4418
                0x0800a5ec       0x14 C:\Users\Nandi\AppData\Local\V.Micro\Arduino\Builds\sharpmem\Arduino_STM32_mapleMini/core.a(rcc_f1.c.o)
 .rodata._ZTV9USBSerial
                0x0800a600       0x28 C:\Users\Nandi\AppData\Local\V.Micro\Arduino\Builds\sharpmem\Arduino_STM32_mapleMini/core.a(usb_serial.cpp.o)
                0x0800a600                vtable for USBSerial
 .rodata.PIN_MAP
                0x0800a628      0x220 C:\Users\Nandi\AppData\Local\V.Micro\Arduino\Builds\sharpmem\Arduino_STM32_mapleMini/core.a(board.cpp.o)
                0x0800a628                PIN_MAP
 .rodata.GPIOB  0x0800a848        0x4 C:\Users\Nandi\AppData\Local\V.Micro\Arduino\Builds\sharpmem\Arduino_STM32_mapleMini/core.a(gpio_f1.c.o)
                0x0800a848                GPIOB
 .rodata.usbVcomDescriptor_iProduct
                0x0800a84c        0xc C:\Users\Nandi\AppData\Local\V.Micro\Arduino\Builds\sharpmem\Arduino_STM32_mapleMini/core.a(usb_cdcacm.c.o)
 .rodata.usbVcomDescriptor_iManufacturer
                0x0800a858       0x12 C:\Users\Nandi\AppData\Local\V.Micro\Arduino\Builds\sharpmem\Arduino_STM32_mapleMini/core.a(usb_cdcacm.c.o)
 .rodata.usbVcomDescriptor_Config
                0x0800a86a       0x43 C:\Users\Nandi\AppData\Local\V.Micro\Arduino\Builds\sharpmem\Arduino_STM32_mapleMini/core.a(usb_cdcacm.c.o)
 .rodata.usbVcomDescriptor_Device
                0x0800a8ad       0x12 C:\Users\Nandi\AppData\Local\V.Micro\Arduino\Builds\sharpmem\Arduino_STM32_mapleMini/core.a(usb_cdcacm.c.o)
 .rodata.usbVcomDescriptor_LangID
                0x0800a8bf        0x4 C:\Users\Nandi\AppData\Local\V.Micro\Arduino\Builds\sharpmem\Arduino_STM32_mapleMini/core.a(usb_cdcacm.c.o)
 *fill*         0x0800a8c3        0x5 
 .rodata._ZTV14HardwareSerial
                0x0800a8c8       0x28 C:\Users\Nandi\AppData\Local\V.Micro\Arduino\Builds\sharpmem\Arduino_STM32_mapleMini/core.a(HardwareSerial.cpp.o)
                0x0800a8c8                vtable for HardwareSerial
 .rodata.str1.4
                0x0800a8f0        0x4 c:/users/nandi/appdata/roaming/arduino15/packages/arduino/tools/arm-none-eabi-gcc/4.8.3-2014q1/bin/../lib/gcc/arm-none-eabi/4.8.3/../../../../arm-none-eabi/lib/armv7-m\libc.a(lib_a-impure.o)
 .rodata._global_impure_ptr
                0x0800a8f4        0x4 c:/users/nandi/appdata/roaming/arduino15/packages/arduino/tools/arm-none-eabi-gcc/4.8.3-2014q1/bin/../lib/gcc/arm-none-eabi/4.8.3/../../../../arm-none-eabi/lib/armv7-m\libc.a(lib_a-impure.o)
                0x0800a8f4                _global_impure_ptr
 *(.USER_FLASH)
 .USER_FLASH    0x0800a8f8       0x10 C:\Users\Nandi\AppData\Local\V.Micro\Arduino\Builds\sharpmem\Arduino_STM32_mapleMini\SPI\SPI.cpp.o
                0x0800a908                . = ALIGN (0x4)
                0x0800a908                _lm_rom_img_cfgp = .
                0x0800a908        0x4 LONG 0x8009898 LOADADDR (.data)
                0x20004810                _lm_heap_start = DEFINED (_lm_heap_start)?_lm_heap_start:_end
                0x20005000                _lm_heap_end = DEFINED (_lm_heap_end)?_lm_heap_end:__msp_init

.rel.dyn        0x0800a90c        0x0
 .rel.iplt      0x00000000        0x0 c:/users/nandi/appdata/roaming/arduino15/packages/arduino/tools/arm-none-eabi-gcc/4.8.3-2014q1/bin/../lib/gcc/arm-none-eabi/4.8.3/armv7-m/crtbegin.o

.bss            0x20001360     0x34b0
                0x20001360                . = ALIGN (0x8)
                0x20001360                __bss_start__ = .
 *(.bss .bss.* .gnu.linkonce.b.*)
 .bss           0x20001360       0x1c c:/users/nandi/appdata/roaming/arduino15/packages/arduino/tools/arm-none-eabi-gcc/4.8.3-2014q1/bin/../lib/gcc/arm-none-eabi/4.8.3/armv7-m/crtbegin.o
 .bss.balls     0x2000137c      0x258 C:\Users\Nandi\AppData\Local\V.Micro\Arduino\Builds\sharpmem\Arduino_STM32_mapleMini\sharpmem.cpp.o
                0x2000137c                balls
 .bss.tm1       0x200015d4        0x4 C:\Users\Nandi\AppData\Local\V.Micro\Arduino\Builds\sharpmem\Arduino_STM32_mapleMini\sharpmem.cpp.o
                0x200015d4                tm1
 .bss.tx        0x200015d8        0x2 C:\Users\Nandi\AppData\Local\V.Micro\Arduino\Builds\sharpmem\Arduino_STM32_mapleMini\sharpmem.cpp.o
                0x200015d8                tx
 *fill*         0x200015da        0x2 
 .bss.display   0x200015dc       0x34 C:\Users\Nandi\AppData\Local\V.Micro\Arduino\Builds\sharpmem\Arduino_STM32_mapleMini\sharpmem.cpp.o
                0x200015dc                display
 .bss.SPI       0x20001610       0x3c C:\Users\Nandi\AppData\Local\V.Micro\Arduino\Builds\sharpmem\Arduino_STM32_mapleMini\SPI\SPI.cpp.o
                0x20001610                SPI
 .bss._ZZN8SharpMem7refreshEvE5start
                0x2000164c        0x1 C:\Users\Nandi\AppData\Local\V.Micro\Arduino\Builds\sharpmem\Arduino_STM32_mapleMini\SharpMemSTM32.cpp.o
 .bss.sharpmem_buffer
                0x2000164d     0x2ee0 C:\Users\Nandi\AppData\Local\V.Micro\Arduino\Builds\sharpmem\Arduino_STM32_mapleMini\SharpMemSTM32.cpp.o
                0x2000164d                sharpmem_buffer
 *fill*         0x2000452d        0x3 
 .bss.systick_user_callback
                0x20004530        0x4 C:\Users\Nandi\AppData\Local\V.Micro\Arduino\Builds\sharpmem\Arduino_STM32_mapleMini/core.a(systick.c.o)
 .bss.Serial    0x20004534       0x10 C:\Users\Nandi\AppData\Local\V.Micro\Arduino\Builds\sharpmem\Arduino_STM32_mapleMini/core.a(usb_serial.cpp.o)
                0x20004534                Serial
 .bss._ZL11reset_state
                0x20004544        0x1 C:\Users\Nandi\AppData\Local\V.Micro\Arduino\Builds\sharpmem\Arduino_STM32_mapleMini/core.a(usb_serial.cpp.o)
 *fill*         0x20004545        0x3 
 .bss.Serial1   0x20004548       0x18 C:\Users\Nandi\AppData\Local\V.Micro\Arduino\Builds\sharpmem\Arduino_STM32_mapleMini/core.a(board.cpp.o)
                0x20004548                Serial1
 .bss.Serial2   0x20004560       0x18 C:\Users\Nandi\AppData\Local\V.Micro\Arduino\Builds\sharpmem\Arduino_STM32_mapleMini/core.a(board.cpp.o)
                0x20004560                Serial2
 .bss.Serial3   0x20004578       0x18 C:\Users\Nandi\AppData\Local\V.Micro\Arduino\Builds\sharpmem\Arduino_STM32_mapleMini/core.a(board.cpp.o)
                0x20004578                Serial3
 .bss.usart1_rb
                0x20004590        0xc C:\Users\Nandi\AppData\Local\V.Micro\Arduino\Builds\sharpmem\Arduino_STM32_mapleMini/core.a(usart_f1.c.o)
 .bss.usart2_rb
                0x2000459c        0xc C:\Users\Nandi\AppData\Local\V.Micro\Arduino\Builds\sharpmem\Arduino_STM32_mapleMini/core.a(usart_f1.c.o)
 .bss.usart3_rb
                0x200045a8        0xc C:\Users\Nandi\AppData\Local\V.Micro\Arduino\Builds\sharpmem\Arduino_STM32_mapleMini/core.a(usart_f1.c.o)
 .bss.n_unsent_bytes
                0x200045b4        0x4 C:\Users\Nandi\AppData\Local\V.Micro\Arduino\Builds\sharpmem\Arduino_STM32_mapleMini/core.a(usb_cdcacm.c.o)
 .bss.vcomBufferRx
                0x200045b8      0x200 C:\Users\Nandi\AppData\Local\V.Micro\Arduino\Builds\sharpmem\Arduino_STM32_mapleMini/core.a(usb_cdcacm.c.o)
 .bss.rx_hook   0x200047b8        0x4 C:\Users\Nandi\AppData\Local\V.Micro\Arduino\Builds\sharpmem\Arduino_STM32_mapleMini/core.a(usb_cdcacm.c.o)
 .bss.rx_offset
                0x200047bc        0x4 C:\Users\Nandi\AppData\Local\V.Micro\Arduino\Builds\sharpmem\Arduino_STM32_mapleMini/core.a(usb_cdcacm.c.o)
 .bss.line_dtr_rts
                0x200047c0        0x1 C:\Users\Nandi\AppData\Local\V.Micro\Arduino\Builds\sharpmem\Arduino_STM32_mapleMini/core.a(usb_cdcacm.c.o)
 .bss.transmitting
                0x200047c1        0x1 C:\Users\Nandi\AppData\Local\V.Micro\Arduino\Builds\sharpmem\Arduino_STM32_mapleMini/core.a(usb_cdcacm.c.o)
 *fill*         0x200047c2        0x2 
 .bss.n_unread_bytes
                0x200047c4        0x4 C:\Users\Nandi\AppData\Local\V.Micro\Arduino\Builds\sharpmem\Arduino_STM32_mapleMini/core.a(usb_cdcacm.c.o)
 .bss.iface_setup_hook
                0x200047c8        0x4 C:\Users\Nandi\AppData\Local\V.Micro\Arduino\Builds\sharpmem\Arduino_STM32_mapleMini/core.a(usb_cdcacm.c.o)
 .bss.Data_Mul_MaxPacketSize
                0x200047cc        0x1 C:\Users\Nandi\AppData\Local\V.Micro\Arduino\Builds\sharpmem\Arduino_STM32_mapleMini/core.a(usb_core.c.o)
                0x200047cc                Data_Mul_MaxPacketSize
 *(COMMON)
 *fill*         0x200047cd        0x3 
 COMMON         0x200047d0        0x4 C:\Users\Nandi\AppData\Local\V.Micro\Arduino\Builds\sharpmem\Arduino_STM32_mapleMini/core.a(systick.c.o)
                0x200047d0                systick_uptime_millis
 COMMON         0x200047d4        0x6 C:\Users\Nandi\AppData\Local\V.Micro\Arduino\Builds\sharpmem\Arduino_STM32_mapleMini/core.a(usb.c.o)
                0x200047d4                SaveRState
                0x200047d6                SaveTState
                0x200047d8                ResumeS
 COMMON         0x200047da        0x2 C:\Users\Nandi\AppData\Local\V.Micro\Arduino\Builds\sharpmem\Arduino_STM32_mapleMini/core.a(usb_core.c.o)
                0x200047da                StatusInfo
 COMMON         0x200047dc       0x32 C:\Users\Nandi\AppData\Local\V.Micro\Arduino\Builds\sharpmem\Arduino_STM32_mapleMini/core.a(usb_init.c.o)
                0x200047dc                SaveState
                0x200047e0                pProperty
                0x200047e4                EPindex
                0x200047e8                Device_Info
                0x20004804                pUser_Standard_Requests
                0x20004808                pInformation
                0x2000480c                wInterrupt_Mask
                0x20004810                . = ALIGN (0x8)
 *fill*         0x2000480e        0x2 
                0x20004810                __bss_end__ = .
                0x20004810                _end = __bss_end__

.stab
 *(.stab)

.stabstr
 *(.stabstr)

.debug
 *(.debug)

.line
 *(.line)

.debug_srcinfo
 *(.debug_srcinfo)

.debug_sfnames
 *(.debug_sfnames)

.debug_aranges  0x00000000     0x10c0
 *(.debug_aranges)
 .debug_aranges
                0x00000000       0x30 C:\Users\Nandi\AppData\Local\V.Micro\Arduino\Builds\sharpmem\Arduino_STM32_mapleMini\sharpmem.cpp.o
 .debug_aranges
                0x00000030      0x118 C:\Users\Nandi\AppData\Local\V.Micro\Arduino\Builds\sharpmem\Arduino_STM32_mapleMini\SPI\SPI.cpp.o
 .debug_aranges
                0x00000148       0x18 C:\Users\Nandi\AppData\Local\V.Micro\Arduino\Builds\sharpmem\Arduino_STM32_mapleMini\Adafruit-GFX-Library-master\glcdfont.c.o
 .debug_aranges
                0x00000160      0x160 C:\Users\Nandi\AppData\Local\V.Micro\Arduino\Builds\sharpmem\Arduino_STM32_mapleMini\Adafruit-GFX-Library-master\Adafruit_GFX.cpp.o
 .debug_aranges
                0x000002c0       0x58 C:\Users\Nandi\AppData\Local\V.Micro\Arduino\Builds\sharpmem\Arduino_STM32_mapleMini\SharpMemSTM32.cpp.o
 .debug_aranges
                0x00000318       0x20 C:\Users\Nandi\AppData\Local\V.Micro\Arduino\Builds\sharpmem\Arduino_STM32_mapleMini/core.a(exc.S.o)
 .debug_aranges
                0x00000338       0x20 C:\Users\Nandi\AppData\Local\V.Micro\Arduino\Builds\sharpmem\Arduino_STM32_mapleMini/core.a(isrs.S.o)
 .debug_aranges
                0x00000358       0x28 C:\Users\Nandi\AppData\Local\V.Micro\Arduino\Builds\sharpmem\Arduino_STM32_mapleMini/core.a(dma.c.o)
 .debug_aranges
                0x00000380       0xa8 C:\Users\Nandi\AppData\Local\V.Micro\Arduino\Builds\sharpmem\Arduino_STM32_mapleMini/core.a(dma_f1.c.o)
 .debug_aranges
                0x00000428       0x48 C:\Users\Nandi\AppData\Local\V.Micro\Arduino\Builds\sharpmem\Arduino_STM32_mapleMini/core.a(rcc.c.o)
 .debug_aranges
                0x00000470       0x48 C:\Users\Nandi\AppData\Local\V.Micro\Arduino\Builds\sharpmem\Arduino_STM32_mapleMini/core.a(rcc_f1.c.o)
 .debug_aranges
                0x000004b8       0x70 C:\Users\Nandi\AppData\Local\V.Micro\Arduino\Builds\sharpmem\Arduino_STM32_mapleMini/core.a(spi.c.o)
 .debug_aranges
                0x00000528       0x28 C:\Users\Nandi\AppData\Local\V.Micro\Arduino\Builds\sharpmem\Arduino_STM32_mapleMini/core.a(spi_f1.c.o)
 .debug_aranges
                0x00000550       0x40 C:\Users\Nandi\AppData\Local\V.Micro\Arduino\Builds\sharpmem\Arduino_STM32_mapleMini/core.a(systick.c.o)
 .debug_aranges
                0x00000590       0x90 C:\Users\Nandi\AppData\Local\V.Micro\Arduino\Builds\sharpmem\Arduino_STM32_mapleMini/core.a(timer.c.o)
 .debug_aranges
                0x00000620       0x50 C:\Users\Nandi\AppData\Local\V.Micro\Arduino\Builds\sharpmem\Arduino_STM32_mapleMini/core.a(util.c.o)
 .debug_aranges
                0x00000670       0x20 C:\Users\Nandi\AppData\Local\V.Micro\Arduino\Builds\sharpmem\Arduino_STM32_mapleMini/core.a(cxxabi-compat.cpp.o)
 .debug_aranges
                0x00000690       0x28 C:\Users\Nandi\AppData\Local\V.Micro\Arduino\Builds\sharpmem\Arduino_STM32_mapleMini/core.a(main.cpp.o)
 .debug_aranges
                0x000006b8       0xf0 C:\Users\Nandi\AppData\Local\V.Micro\Arduino\Builds\sharpmem\Arduino_STM32_mapleMini/core.a(Print.cpp.o)
 .debug_aranges
                0x000007a8       0xc0 C:\Users\Nandi\AppData\Local\V.Micro\Arduino\Builds\sharpmem\Arduino_STM32_mapleMini/core.a(usb_serial.cpp.o)
 .debug_aranges
                0x00000868       0x28 C:\Users\Nandi\AppData\Local\V.Micro\Arduino\Builds\sharpmem\Arduino_STM32_mapleMini/core.a(wirish_digital.cpp.o)
 .debug_aranges
                0x00000890       0x28 C:\Users\Nandi\AppData\Local\V.Micro\Arduino\Builds\sharpmem\Arduino_STM32_mapleMini/core.a(wirish_time.cpp.o)
 .debug_aranges
                0x000008b8       0x20 C:\Users\Nandi\AppData\Local\V.Micro\Arduino\Builds\sharpmem\Arduino_STM32_mapleMini/core.a(wirish_digital_f1.cpp.o)
 .debug_aranges
                0x000008d8       0x20 C:\Users\Nandi\AppData\Local\V.Micro\Arduino\Builds\sharpmem\Arduino_STM32_mapleMini/core.a(start.S.o)
 .debug_aranges
                0x000008f8       0x20 C:\Users\Nandi\AppData\Local\V.Micro\Arduino\Builds\sharpmem\Arduino_STM32_mapleMini/core.a(start_c.c.o)
 .debug_aranges
                0x00000918       0x28 C:\Users\Nandi\AppData\Local\V.Micro\Arduino\Builds\sharpmem\Arduino_STM32_mapleMini/core.a(board.cpp.o)
 .debug_aranges
                0x00000940       0x40 C:\Users\Nandi\AppData\Local\V.Micro\Arduino\Builds\sharpmem\Arduino_STM32_mapleMini/core.a(boards.cpp.o)
 .debug_aranges
                0x00000980       0x40 C:\Users\Nandi\AppData\Local\V.Micro\Arduino\Builds\sharpmem\Arduino_STM32_mapleMini/core.a(boards_setup.cpp.o)
 .debug_aranges
                0x000009c0       0x38 C:\Users\Nandi\AppData\Local\V.Micro\Arduino\Builds\sharpmem\Arduino_STM32_mapleMini/core.a(adc.c.o)
 .debug_aranges
                0x000009f8       0x40 C:\Users\Nandi\AppData\Local\V.Micro\Arduino\Builds\sharpmem\Arduino_STM32_mapleMini/core.a(adc_f1.c.o)
 .debug_aranges
                0x00000a38       0x20 C:\Users\Nandi\AppData\Local\V.Micro\Arduino\Builds\sharpmem\Arduino_STM32_mapleMini/core.a(flash.c.o)
 .debug_aranges
                0x00000a58       0x40 C:\Users\Nandi\AppData\Local\V.Micro\Arduino\Builds\sharpmem\Arduino_STM32_mapleMini/core.a(gpio_f1.c.o)
 .debug_aranges
                0x00000a98       0x28 C:\Users\Nandi\AppData\Local\V.Micro\Arduino\Builds\sharpmem\Arduino_STM32_mapleMini/core.a(iwdg.c.o)
 .debug_aranges
                0x00000ac0       0x38 C:\Users\Nandi\AppData\Local\V.Micro\Arduino\Builds\sharpmem\Arduino_STM32_mapleMini/core.a(nvic.c.o)
 .debug_aranges
                0x00000af8       0x48 C:\Users\Nandi\AppData\Local\V.Micro\Arduino\Builds\sharpmem\Arduino_STM32_mapleMini/core.a(usart.c.o)
 .debug_aranges
                0x00000b40       0x50 C:\Users\Nandi\AppData\Local\V.Micro\Arduino\Builds\sharpmem\Arduino_STM32_mapleMini/core.a(usart_f1.c.o)
 .debug_aranges
                0x00000b90       0x20 C:\Users\Nandi\AppData\Local\V.Micro\Arduino\Builds\sharpmem\Arduino_STM32_mapleMini/core.a(usart_private.c.o)
 .debug_aranges
                0x00000bb0       0x30 C:\Users\Nandi\AppData\Local\V.Micro\Arduino\Builds\sharpmem\Arduino_STM32_mapleMini/core.a(usb.c.o)
 .debug_aranges
                0x00000be0      0x120 C:\Users\Nandi\AppData\Local\V.Micro\Arduino\Builds\sharpmem\Arduino_STM32_mapleMini/core.a(usb_cdcacm.c.o)
 .debug_aranges
                0x00000d00       0x40 C:\Users\Nandi\AppData\Local\V.Micro\Arduino\Builds\sharpmem\Arduino_STM32_mapleMini/core.a(usb_reg_map.c.o)
 .debug_aranges
                0x00000d40       0x98 C:\Users\Nandi\AppData\Local\V.Micro\Arduino\Builds\sharpmem\Arduino_STM32_mapleMini/core.a(usb_core.c.o)
 .debug_aranges
                0x00000dd8       0x20 C:\Users\Nandi\AppData\Local\V.Micro\Arduino\Builds\sharpmem\Arduino_STM32_mapleMini/core.a(usb_init.c.o)
 .debug_aranges
                0x00000df8       0x28 C:\Users\Nandi\AppData\Local\V.Micro\Arduino\Builds\sharpmem\Arduino_STM32_mapleMini/core.a(usb_mem.c.o)
 .debug_aranges
                0x00000e20      0x1f0 C:\Users\Nandi\AppData\Local\V.Micro\Arduino\Builds\sharpmem\Arduino_STM32_mapleMini/core.a(usb_regs.c.o)
 .debug_aranges
                0x00001010       0x68 C:\Users\Nandi\AppData\Local\V.Micro\Arduino\Builds\sharpmem\Arduino_STM32_mapleMini/core.a(HardwareSerial.cpp.o)
 .debug_aranges
                0x00001078       0x28 C:\Users\Nandi\AppData\Local\V.Micro\Arduino\Builds\sharpmem\Arduino_STM32_mapleMini/core.a(wirish_debug.cpp.o)
 .debug_aranges
                0x000010a0       0x20 C:\Users\Nandi\AppData\Local\V.Micro\Arduino\Builds\sharpmem\Arduino_STM32_mapleMini/core.a(gpio.c.o)

.debug_pubnames
 *(.debug_pubnames)

.debug_info     0x00000000    0x229f0
 *(.debug_info .gnu.linkonce.wi.*)
 .debug_info    0x00000000      0xb96 C:\Users\Nandi\AppData\Local\V.Micro\Arduino\Builds\sharpmem\Arduino_STM32_mapleMini\sharpmem.cpp.o
 .debug_info    0x00000b96     0x2c78 C:\Users\Nandi\AppData\Local\V.Micro\Arduino\Builds\sharpmem\Arduino_STM32_mapleMini\SPI\SPI.cpp.o
 .debug_info    0x0000380e       0x49 C:\Users\Nandi\AppData\Local\V.Micro\Arduino\Builds\sharpmem\Arduino_STM32_mapleMini\Adafruit-GFX-Library-master\glcdfont.c.o
 .debug_info    0x00003857     0x28e6 C:\Users\Nandi\AppData\Local\V.Micro\Arduino\Builds\sharpmem\Arduino_STM32_mapleMini\Adafruit-GFX-Library-master\Adafruit_GFX.cpp.o
 .debug_info    0x0000613d     0x1dc6 C:\Users\Nandi\AppData\Local\V.Micro\Arduino\Builds\sharpmem\Arduino_STM32_mapleMini\SharpMemSTM32.cpp.o
 .debug_info    0x00007f03       0xa2 C:\Users\Nandi\AppData\Local\V.Micro\Arduino\Builds\sharpmem\Arduino_STM32_mapleMini/core.a(exc.S.o)
 .debug_info    0x00007fa5       0xb7 C:\Users\Nandi\AppData\Local\V.Micro\Arduino\Builds\sharpmem\Arduino_STM32_mapleMini/core.a(isrs.S.o)
 .debug_info    0x0000805c      0x6f7 C:\Users\Nandi\AppData\Local\V.Micro\Arduino\Builds\sharpmem\Arduino_STM32_mapleMini/core.a(dma.c.o)
 .debug_info    0x00008753     0x19f2 C:\Users\Nandi\AppData\Local\V.Micro\Arduino\Builds\sharpmem\Arduino_STM32_mapleMini/core.a(dma_f1.c.o)
 .debug_info    0x0000a145      0x556 C:\Users\Nandi\AppData\Local\V.Micro\Arduino\Builds\sharpmem\Arduino_STM32_mapleMini/core.a(rcc.c.o)
 .debug_info    0x0000a69b      0xb64 C:\Users\Nandi\AppData\Local\V.Micro\Arduino\Builds\sharpmem\Arduino_STM32_mapleMini/core.a(rcc_f1.c.o)
 .debug_info    0x0000b1ff      0xac1 C:\Users\Nandi\AppData\Local\V.Micro\Arduino\Builds\sharpmem\Arduino_STM32_mapleMini/core.a(spi.c.o)
 .debug_info    0x0000bcc0      0x794 C:\Users\Nandi\AppData\Local\V.Micro\Arduino\Builds\sharpmem\Arduino_STM32_mapleMini/core.a(spi_f1.c.o)
 .debug_info    0x0000c454      0x182 C:\Users\Nandi\AppData\Local\V.Micro\Arduino\Builds\sharpmem\Arduino_STM32_mapleMini/core.a(systick.c.o)
 .debug_info    0x0000c5d6     0x1a07 C:\Users\Nandi\AppData\Local\V.Micro\Arduino\Builds\sharpmem\Arduino_STM32_mapleMini/core.a(timer.c.o)
 .debug_info    0x0000dfdd      0xab4 C:\Users\Nandi\AppData\Local\V.Micro\Arduino\Builds\sharpmem\Arduino_STM32_mapleMini/core.a(util.c.o)
 .debug_info    0x0000ea91       0x33 C:\Users\Nandi\AppData\Local\V.Micro\Arduino\Builds\sharpmem\Arduino_STM32_mapleMini/core.a(cxxabi-compat.cpp.o)
 .debug_info    0x0000eac4       0x99 C:\Users\Nandi\AppData\Local\V.Micro\Arduino\Builds\sharpmem\Arduino_STM32_mapleMini/core.a(main.cpp.o)
 .debug_info    0x0000eb5d     0x2062 C:\Users\Nandi\AppData\Local\V.Micro\Arduino\Builds\sharpmem\Arduino_STM32_mapleMini/core.a(Print.cpp.o)
 .debug_info    0x00010bbf     0x26cb C:\Users\Nandi\AppData\Local\V.Micro\Arduino\Builds\sharpmem\Arduino_STM32_mapleMini/core.a(usb_serial.cpp.o)
 .debug_info    0x0001328a      0x92a C:\Users\Nandi\AppData\Local\V.Micro\Arduino\Builds\sharpmem\Arduino_STM32_mapleMini/core.a(wirish_digital.cpp.o)
 .debug_info    0x00013bb4      0x180 C:\Users\Nandi\AppData\Local\V.Micro\Arduino\Builds\sharpmem\Arduino_STM32_mapleMini/core.a(wirish_time.cpp.o)
 .debug_info    0x00013d34      0x98f C:\Users\Nandi\AppData\Local\V.Micro\Arduino\Builds\sharpmem\Arduino_STM32_mapleMini/core.a(wirish_digital_f1.cpp.o)
 .debug_info    0x000146c3       0xaa C:\Users\Nandi\AppData\Local\V.Micro\Arduino\Builds\sharpmem\Arduino_STM32_mapleMini/core.a(start.S.o)
 .debug_info    0x0001476d      0x168 C:\Users\Nandi\AppData\Local\V.Micro\Arduino\Builds\sharpmem\Arduino_STM32_mapleMini/core.a(start_c.c.o)
 .debug_info    0x000148d5      0xe41 C:\Users\Nandi\AppData\Local\V.Micro\Arduino\Builds\sharpmem\Arduino_STM32_mapleMini/core.a(board.cpp.o)
 .debug_info    0x00015716     0x1241 C:\Users\Nandi\AppData\Local\V.Micro\Arduino\Builds\sharpmem\Arduino_STM32_mapleMini/core.a(boards.cpp.o)
 .debug_info    0x00016957      0x93c C:\Users\Nandi\AppData\Local\V.Micro\Arduino\Builds\sharpmem\Arduino_STM32_mapleMini/core.a(boards_setup.cpp.o)
 .debug_info    0x00017293      0x585 C:\Users\Nandi\AppData\Local\V.Micro\Arduino\Builds\sharpmem\Arduino_STM32_mapleMini/core.a(adc.c.o)
 .debug_info    0x00017818      0x9be C:\Users\Nandi\AppData\Local\V.Micro\Arduino\Builds\sharpmem\Arduino_STM32_mapleMini/core.a(adc_f1.c.o)
 .debug_info    0x000181d6      0x128 C:\Users\Nandi\AppData\Local\V.Micro\Arduino\Builds\sharpmem\Arduino_STM32_mapleMini/core.a(flash.c.o)
 .debug_info    0x000182fe      0x6e3 C:\Users\Nandi\AppData\Local\V.Micro\Arduino\Builds\sharpmem\Arduino_STM32_mapleMini/core.a(gpio_f1.c.o)
 .debug_info    0x000189e1      0x16b C:\Users\Nandi\AppData\Local\V.Micro\Arduino\Builds\sharpmem\Arduino_STM32_mapleMini/core.a(iwdg.c.o)
 .debug_info    0x00018b4c      0x5a2 C:\Users\Nandi\AppData\Local\V.Micro\Arduino\Builds\sharpmem\Arduino_STM32_mapleMini/core.a(nvic.c.o)
 .debug_info    0x000190ee      0xa69 C:\Users\Nandi\AppData\Local\V.Micro\Arduino\Builds\sharpmem\Arduino_STM32_mapleMini/core.a(usart.c.o)
 .debug_info    0x00019b57      0xa95 C:\Users\Nandi\AppData\Local\V.Micro\Arduino\Builds\sharpmem\Arduino_STM32_mapleMini/core.a(usart_f1.c.o)
 .debug_info    0x0001a5ec      0x577 C:\Users\Nandi\AppData\Local\V.Micro\Arduino\Builds\sharpmem\Arduino_STM32_mapleMini/core.a(usart_private.c.o)
 .debug_info    0x0001ab63      0xd04 C:\Users\Nandi\AppData\Local\V.Micro\Arduino\Builds\sharpmem\Arduino_STM32_mapleMini/core.a(usb.c.o)
 .debug_info    0x0001b867     0x217a C:\Users\Nandi\AppData\Local\V.Micro\Arduino\Builds\sharpmem\Arduino_STM32_mapleMini/core.a(usb_cdcacm.c.o)
 .debug_info    0x0001d9e1      0x4b6 C:\Users\Nandi\AppData\Local\V.Micro\Arduino\Builds\sharpmem\Arduino_STM32_mapleMini/core.a(usb_reg_map.c.o)
 .debug_info    0x0001de97      0xe07 C:\Users\Nandi\AppData\Local\V.Micro\Arduino\Builds\sharpmem\Arduino_STM32_mapleMini/core.a(usb_core.c.o)
 .debug_info    0x0001ec9e      0x3ed C:\Users\Nandi\AppData\Local\V.Micro\Arduino\Builds\sharpmem\Arduino_STM32_mapleMini/core.a(usb_init.c.o)
 .debug_info    0x0001f08b      0x17b C:\Users\Nandi\AppData\Local\V.Micro\Arduino\Builds\sharpmem\Arduino_STM32_mapleMini/core.a(usb_mem.c.o)
 .debug_info    0x0001f206      0xc88 C:\Users\Nandi\AppData\Local\V.Micro\Arduino\Builds\sharpmem\Arduino_STM32_mapleMini/core.a(usb_regs.c.o)
 .debug_info    0x0001fe8e     0x2672 C:\Users\Nandi\AppData\Local\V.Micro\Arduino\Builds\sharpmem\Arduino_STM32_mapleMini/core.a(HardwareSerial.cpp.o)
 .debug_info    0x00022500      0x1dd C:\Users\Nandi\AppData\Local\V.Micro\Arduino\Builds\sharpmem\Arduino_STM32_mapleMini/core.a(wirish_debug.cpp.o)
 .debug_info    0x000226dd      0x313 C:\Users\Nandi\AppData\Local\V.Micro\Arduino\Builds\sharpmem\Arduino_STM32_mapleMini/core.a(gpio.c.o)

.debug_abbrev   0x00000000     0x6870
 *(.debug_abbrev)
 .debug_abbrev  0x00000000      0x365 C:\Users\Nandi\AppData\Local\V.Micro\Arduino\Builds\sharpmem\Arduino_STM32_mapleMini\sharpmem.cpp.o
 .debug_abbrev  0x00000365      0x5fc C:\Users\Nandi\AppData\Local\V.Micro\Arduino\Builds\sharpmem\Arduino_STM32_mapleMini\SPI\SPI.cpp.o
 .debug_abbrev  0x00000961       0x3f C:\Users\Nandi\AppData\Local\V.Micro\Arduino\Builds\sharpmem\Arduino_STM32_mapleMini\Adafruit-GFX-Library-master\glcdfont.c.o
 .debug_abbrev  0x000009a0      0x50e C:\Users\Nandi\AppData\Local\V.Micro\Arduino\Builds\sharpmem\Arduino_STM32_mapleMini\Adafruit-GFX-Library-master\Adafruit_GFX.cpp.o
 .debug_abbrev  0x00000eae      0x4d5 C:\Users\Nandi\AppData\Local\V.Micro\Arduino\Builds\sharpmem\Arduino_STM32_mapleMini\SharpMemSTM32.cpp.o
 .debug_abbrev  0x00001383       0x14 C:\Users\Nandi\AppData\Local\V.Micro\Arduino\Builds\sharpmem\Arduino_STM32_mapleMini/core.a(exc.S.o)
 .debug_abbrev  0x00001397       0x14 C:\Users\Nandi\AppData\Local\V.Micro\Arduino\Builds\sharpmem\Arduino_STM32_mapleMini/core.a(isrs.S.o)
 .debug_abbrev  0x000013ab      0x182 C:\Users\Nandi\AppData\Local\V.Micro\Arduino\Builds\sharpmem\Arduino_STM32_mapleMini/core.a(dma.c.o)
 .debug_abbrev  0x0000152d      0x3dd C:\Users\Nandi\AppData\Local\V.Micro\Arduino\Builds\sharpmem\Arduino_STM32_mapleMini/core.a(dma_f1.c.o)
 .debug_abbrev  0x0000190a      0x17f C:\Users\Nandi\AppData\Local\V.Micro\Arduino\Builds\sharpmem\Arduino_STM32_mapleMini/core.a(rcc.c.o)
 .debug_abbrev  0x00001a89      0x28c C:\Users\Nandi\AppData\Local\V.Micro\Arduino\Builds\sharpmem\Arduino_STM32_mapleMini/core.a(rcc_f1.c.o)
 .debug_abbrev  0x00001d15      0x297 C:\Users\Nandi\AppData\Local\V.Micro\Arduino\Builds\sharpmem\Arduino_STM32_mapleMini/core.a(spi.c.o)
 .debug_abbrev  0x00001fac      0x152 C:\Users\Nandi\AppData\Local\V.Micro\Arduino\Builds\sharpmem\Arduino_STM32_mapleMini/core.a(spi_f1.c.o)
 .debug_abbrev  0x000020fe      0x10f C:\Users\Nandi\AppData\Local\V.Micro\Arduino\Builds\sharpmem\Arduino_STM32_mapleMini/core.a(systick.c.o)
 .debug_abbrev  0x0000220d      0x41b C:\Users\Nandi\AppData\Local\V.Micro\Arduino\Builds\sharpmem\Arduino_STM32_mapleMini/core.a(timer.c.o)
 .debug_abbrev  0x00002628      0x2c9 C:\Users\Nandi\AppData\Local\V.Micro\Arduino\Builds\sharpmem\Arduino_STM32_mapleMini/core.a(util.c.o)
 .debug_abbrev  0x000028f1       0x28 C:\Users\Nandi\AppData\Local\V.Micro\Arduino\Builds\sharpmem\Arduino_STM32_mapleMini/core.a(cxxabi-compat.cpp.o)
 .debug_abbrev  0x00002919       0x7b C:\Users\Nandi\AppData\Local\V.Micro\Arduino\Builds\sharpmem\Arduino_STM32_mapleMini/core.a(main.cpp.o)
 .debug_abbrev  0x00002994      0x3e9 C:\Users\Nandi\AppData\Local\V.Micro\Arduino\Builds\sharpmem\Arduino_STM32_mapleMini/core.a(Print.cpp.o)
 .debug_abbrev  0x00002d7d      0x5fa C:\Users\Nandi\AppData\Local\V.Micro\Arduino\Builds\sharpmem\Arduino_STM32_mapleMini/core.a(usb_serial.cpp.o)
 .debug_abbrev  0x00003377      0x17e C:\Users\Nandi\AppData\Local\V.Micro\Arduino\Builds\sharpmem\Arduino_STM32_mapleMini/core.a(wirish_digital.cpp.o)
 .debug_abbrev  0x000034f5       0xe7 C:\Users\Nandi\AppData\Local\V.Micro\Arduino\Builds\sharpmem\Arduino_STM32_mapleMini/core.a(wirish_time.cpp.o)
 .debug_abbrev  0x000035dc      0x19c C:\Users\Nandi\AppData\Local\V.Micro\Arduino\Builds\sharpmem\Arduino_STM32_mapleMini/core.a(wirish_digital_f1.cpp.o)
 .debug_abbrev  0x00003778       0x14 C:\Users\Nandi\AppData\Local\V.Micro\Arduino\Builds\sharpmem\Arduino_STM32_mapleMini/core.a(start.S.o)
 .debug_abbrev  0x0000378c      0x11f C:\Users\Nandi\AppData\Local\V.Micro\Arduino\Builds\sharpmem\Arduino_STM32_mapleMini/core.a(start_c.c.o)
 .debug_abbrev  0x000038ab      0x204 C:\Users\Nandi\AppData\Local\V.Micro\Arduino\Builds\sharpmem\Arduino_STM32_mapleMini/core.a(board.cpp.o)
 .debug_abbrev  0x00003aaf      0x3dd C:\Users\Nandi\AppData\Local\V.Micro\Arduino\Builds\sharpmem\Arduino_STM32_mapleMini/core.a(boards.cpp.o)
 .debug_abbrev  0x00003e8c      0x1fe C:\Users\Nandi\AppData\Local\V.Micro\Arduino\Builds\sharpmem\Arduino_STM32_mapleMini/core.a(boards_setup.cpp.o)
 .debug_abbrev  0x0000408a      0x1fb C:\Users\Nandi\AppData\Local\V.Micro\Arduino\Builds\sharpmem\Arduino_STM32_mapleMini/core.a(adc.c.o)
 .debug_abbrev  0x00004285      0x23c C:\Users\Nandi\AppData\Local\V.Micro\Arduino\Builds\sharpmem\Arduino_STM32_mapleMini/core.a(adc_f1.c.o)
 .debug_abbrev  0x000044c1       0x9f C:\Users\Nandi\AppData\Local\V.Micro\Arduino\Builds\sharpmem\Arduino_STM32_mapleMini/core.a(flash.c.o)
 .debug_abbrev  0x00004560      0x1a0 C:\Users\Nandi\AppData\Local\V.Micro\Arduino\Builds\sharpmem\Arduino_STM32_mapleMini/core.a(gpio_f1.c.o)
 .debug_abbrev  0x00004700       0xcb C:\Users\Nandi\AppData\Local\V.Micro\Arduino\Builds\sharpmem\Arduino_STM32_mapleMini/core.a(iwdg.c.o)
 .debug_abbrev  0x000047cb      0x1ac C:\Users\Nandi\AppData\Local\V.Micro\Arduino\Builds\sharpmem\Arduino_STM32_mapleMini/core.a(nvic.c.o)
 .debug_abbrev  0x00004977      0x2f0 C:\Users\Nandi\AppData\Local\V.Micro\Arduino\Builds\sharpmem\Arduino_STM32_mapleMini/core.a(usart.c.o)
 .debug_abbrev  0x00004c67      0x2ae C:\Users\Nandi\AppData\Local\V.Micro\Arduino\Builds\sharpmem\Arduino_STM32_mapleMini/core.a(usart_f1.c.o)
 .debug_abbrev  0x00004f15      0x144 C:\Users\Nandi\AppData\Local\V.Micro\Arduino\Builds\sharpmem\Arduino_STM32_mapleMini/core.a(usart_private.c.o)
 .debug_abbrev  0x00005059      0x33a C:\Users\Nandi\AppData\Local\V.Micro\Arduino\Builds\sharpmem\Arduino_STM32_mapleMini/core.a(usb.c.o)
 .debug_abbrev  0x00005393      0x49e C:\Users\Nandi\AppData\Local\V.Micro\Arduino\Builds\sharpmem\Arduino_STM32_mapleMini/core.a(usb_cdcacm.c.o)
 .debug_abbrev  0x00005831      0x203 C:\Users\Nandi\AppData\Local\V.Micro\Arduino\Builds\sharpmem\Arduino_STM32_mapleMini/core.a(usb_reg_map.c.o)
 .debug_abbrev  0x00005a34      0x3a6 C:\Users\Nandi\AppData\Local\V.Micro\Arduino\Builds\sharpmem\Arduino_STM32_mapleMini/core.a(usb_core.c.o)
 .debug_abbrev  0x00005dda      0x101 C:\Users\Nandi\AppData\Local\V.Micro\Arduino\Builds\sharpmem\Arduino_STM32_mapleMini/core.a(usb_init.c.o)
 .debug_abbrev  0x00005edb       0x90 C:\Users\Nandi\AppData\Local\V.Micro\Arduino\Builds\sharpmem\Arduino_STM32_mapleMini/core.a(usb_mem.c.o)
 .debug_abbrev  0x00005f6b      0x1f3 C:\Users\Nandi\AppData\Local\V.Micro\Arduino\Builds\sharpmem\Arduino_STM32_mapleMini/core.a(usb_regs.c.o)
 .debug_abbrev  0x0000615e      0x4e4 C:\Users\Nandi\AppData\Local\V.Micro\Arduino\Builds\sharpmem\Arduino_STM32_mapleMini/core.a(HardwareSerial.cpp.o)
 .debug_abbrev  0x00006642      0x11b C:\Users\Nandi\AppData\Local\V.Micro\Arduino\Builds\sharpmem\Arduino_STM32_mapleMini/core.a(wirish_debug.cpp.o)
 .debug_abbrev  0x0000675d      0x113 C:\Users\Nandi\AppData\Local\V.Micro\Arduino\Builds\sharpmem\Arduino_STM32_mapleMini/core.a(gpio.c.o)

.debug_line     0x00000000     0xa605
 *(.debug_line)
 .debug_line    0x00000000      0x533 C:\Users\Nandi\AppData\Local\V.Micro\Arduino\Builds\sharpmem\Arduino_STM32_mapleMini\sharpmem.cpp.o
 .debug_line    0x00000533      0x92b C:\Users\Nandi\AppData\Local\V.Micro\Arduino\Builds\sharpmem\Arduino_STM32_mapleMini\SPI\SPI.cpp.o
 .debug_line    0x00000e5e       0x70 C:\Users\Nandi\AppData\Local\V.Micro\Arduino\Builds\sharpmem\Arduino_STM32_mapleMini\Adafruit-GFX-Library-master\glcdfont.c.o
 .debug_line    0x00000ece      0x8e9 C:\Users\Nandi\AppData\Local\V.Micro\Arduino\Builds\sharpmem\Arduino_STM32_mapleMini\Adafruit-GFX-Library-master\Adafruit_GFX.cpp.o
 .debug_line    0x000017b7      0x606 C:\Users\Nandi\AppData\Local\V.Micro\Arduino\Builds\sharpmem\Arduino_STM32_mapleMini\SharpMemSTM32.cpp.o
 .debug_line    0x00001dbd       0xa2 C:\Users\Nandi\AppData\Local\V.Micro\Arduino\Builds\sharpmem\Arduino_STM32_mapleMini/core.a(exc.S.o)
 .debug_line    0x00001e5f       0x9f C:\Users\Nandi\AppData\Local\V.Micro\Arduino\Builds\sharpmem\Arduino_STM32_mapleMini/core.a(isrs.S.o)
 .debug_line    0x00001efe      0x33e C:\Users\Nandi\AppData\Local\V.Micro\Arduino\Builds\sharpmem\Arduino_STM32_mapleMini/core.a(dma.c.o)
 .debug_line    0x0000223c      0x633 C:\Users\Nandi\AppData\Local\V.Micro\Arduino\Builds\sharpmem\Arduino_STM32_mapleMini/core.a(dma_f1.c.o)
 .debug_line    0x0000286f      0x375 C:\Users\Nandi\AppData\Local\V.Micro\Arduino\Builds\sharpmem\Arduino_STM32_mapleMini/core.a(rcc.c.o)
 .debug_line    0x00002be4      0x3c2 C:\Users\Nandi\AppData\Local\V.Micro\Arduino\Builds\sharpmem\Arduino_STM32_mapleMini/core.a(rcc_f1.c.o)
 .debug_line    0x00002fa6      0x3f2 C:\Users\Nandi\AppData\Local\V.Micro\Arduino\Builds\sharpmem\Arduino_STM32_mapleMini/core.a(spi.c.o)
 .debug_line    0x00003398      0x2d5 C:\Users\Nandi\AppData\Local\V.Micro\Arduino\Builds\sharpmem\Arduino_STM32_mapleMini/core.a(spi_f1.c.o)
 .debug_line    0x0000366d      0x270 C:\Users\Nandi\AppData\Local\V.Micro\Arduino\Builds\sharpmem\Arduino_STM32_mapleMini/core.a(systick.c.o)
 .debug_line    0x000038dd      0x560 C:\Users\Nandi\AppData\Local\V.Micro\Arduino\Builds\sharpmem\Arduino_STM32_mapleMini/core.a(timer.c.o)
 .debug_line    0x00003e3d      0x38d C:\Users\Nandi\AppData\Local\V.Micro\Arduino\Builds\sharpmem\Arduino_STM32_mapleMini/core.a(util.c.o)
 .debug_line    0x000041ca       0x8b C:\Users\Nandi\AppData\Local\V.Micro\Arduino\Builds\sharpmem\Arduino_STM32_mapleMini/core.a(cxxabi-compat.cpp.o)
 .debug_line    0x00004255       0x9a C:\Users\Nandi\AppData\Local\V.Micro\Arduino\Builds\sharpmem\Arduino_STM32_mapleMini/core.a(main.cpp.o)
 .debug_line    0x000042ef      0x52d C:\Users\Nandi\AppData\Local\V.Micro\Arduino\Builds\sharpmem\Arduino_STM32_mapleMini/core.a(Print.cpp.o)
 .debug_line    0x0000481c      0x5e9 C:\Users\Nandi\AppData\Local\V.Micro\Arduino\Builds\sharpmem\Arduino_STM32_mapleMini/core.a(usb_serial.cpp.o)
 .debug_line    0x00004e05      0x331 C:\Users\Nandi\AppData\Local\V.Micro\Arduino\Builds\sharpmem\Arduino_STM32_mapleMini/core.a(wirish_digital.cpp.o)
 .debug_line    0x00005136      0x252 C:\Users\Nandi\AppData\Local\V.Micro\Arduino\Builds\sharpmem\Arduino_STM32_mapleMini/core.a(wirish_time.cpp.o)
 .debug_line    0x00005388      0x376 C:\Users\Nandi\AppData\Local\V.Micro\Arduino\Builds\sharpmem\Arduino_STM32_mapleMini/core.a(wirish_digital_f1.cpp.o)
 .debug_line    0x000056fe       0x97 C:\Users\Nandi\AppData\Local\V.Micro\Arduino\Builds\sharpmem\Arduino_STM32_mapleMini/core.a(start.S.o)
 .debug_line    0x00005795       0xa8 C:\Users\Nandi\AppData\Local\V.Micro\Arduino\Builds\sharpmem\Arduino_STM32_mapleMini/core.a(start_c.c.o)
 .debug_line    0x0000583d      0x38c C:\Users\Nandi\AppData\Local\V.Micro\Arduino\Builds\sharpmem\Arduino_STM32_mapleMini/core.a(board.cpp.o)
 .debug_line    0x00005bc9      0x469 C:\Users\Nandi\AppData\Local\V.Micro\Arduino\Builds\sharpmem\Arduino_STM32_mapleMini/core.a(boards.cpp.o)
 .debug_line    0x00006032      0x387 C:\Users\Nandi\AppData\Local\V.Micro\Arduino\Builds\sharpmem\Arduino_STM32_mapleMini/core.a(boards_setup.cpp.o)
 .debug_line    0x000063b9      0x2fc C:\Users\Nandi\AppData\Local\V.Micro\Arduino\Builds\sharpmem\Arduino_STM32_mapleMini/core.a(adc.c.o)
 .debug_line    0x000066b5      0x353 C:\Users\Nandi\AppData\Local\V.Micro\Arduino\Builds\sharpmem\Arduino_STM32_mapleMini/core.a(adc_f1.c.o)
 .debug_line    0x00006a08      0x289 C:\Users\Nandi\AppData\Local\V.Micro\Arduino\Builds\sharpmem\Arduino_STM32_mapleMini/core.a(flash.c.o)
 .debug_line    0x00006c91      0x31f C:\Users\Nandi\AppData\Local\V.Micro\Arduino\Builds\sharpmem\Arduino_STM32_mapleMini/core.a(gpio_f1.c.o)
 .debug_line    0x00006fb0      0x234 C:\Users\Nandi\AppData\Local\V.Micro\Arduino\Builds\sharpmem\Arduino_STM32_mapleMini/core.a(iwdg.c.o)
 .debug_line    0x000071e4      0x2f1 C:\Users\Nandi\AppData\Local\V.Micro\Arduino\Builds\sharpmem\Arduino_STM32_mapleMini/core.a(nvic.c.o)
 .debug_line    0x000074d5      0x3b9 C:\Users\Nandi\AppData\Local\V.Micro\Arduino\Builds\sharpmem\Arduino_STM32_mapleMini/core.a(usart.c.o)
 .debug_line    0x0000788e      0x3e4 C:\Users\Nandi\AppData\Local\V.Micro\Arduino\Builds\sharpmem\Arduino_STM32_mapleMini/core.a(usart_f1.c.o)
 .debug_line    0x00007c72      0x2c5 C:\Users\Nandi\AppData\Local\V.Micro\Arduino\Builds\sharpmem\Arduino_STM32_mapleMini/core.a(usart_private.c.o)
 .debug_line    0x00007f37      0x4be C:\Users\Nandi\AppData\Local\V.Micro\Arduino\Builds\sharpmem\Arduino_STM32_mapleMini/core.a(usb.c.o)
 .debug_line    0x000083f5      0x8a3 C:\Users\Nandi\AppData\Local\V.Micro\Arduino\Builds\sharpmem\Arduino_STM32_mapleMini/core.a(usb_cdcacm.c.o)
 .debug_line    0x00008c98      0x34d C:\Users\Nandi\AppData\Local\V.Micro\Arduino\Builds\sharpmem\Arduino_STM32_mapleMini/core.a(usb_reg_map.c.o)
 .debug_line    0x00008fe5      0x409 C:\Users\Nandi\AppData\Local\V.Micro\Arduino\Builds\sharpmem\Arduino_STM32_mapleMini/core.a(usb_core.c.o)
 .debug_line    0x000093ee      0x11c C:\Users\Nandi\AppData\Local\V.Micro\Arduino\Builds\sharpmem\Arduino_STM32_mapleMini/core.a(usb_init.c.o)
 .debug_line    0x0000950a      0x148 C:\Users\Nandi\AppData\Local\V.Micro\Arduino\Builds\sharpmem\Arduino_STM32_mapleMini/core.a(usb_mem.c.o)
 .debug_line    0x00009652      0x580 C:\Users\Nandi\AppData\Local\V.Micro\Arduino\Builds\sharpmem\Arduino_STM32_mapleMini/core.a(usb_regs.c.o)
 .debug_line    0x00009bd2      0x4de C:\Users\Nandi\AppData\Local\V.Micro\Arduino\Builds\sharpmem\Arduino_STM32_mapleMini/core.a(HardwareSerial.cpp.o)
 .debug_line    0x0000a0b0      0x2a7 C:\Users\Nandi\AppData\Local\V.Micro\Arduino\Builds\sharpmem\Arduino_STM32_mapleMini/core.a(wirish_debug.cpp.o)
 .debug_line    0x0000a357      0x2ae C:\Users\Nandi\AppData\Local\V.Micro\Arduino\Builds\sharpmem\Arduino_STM32_mapleMini/core.a(gpio.c.o)

.debug_frame    0x00000000     0x27d4
 *(.debug_frame)
 .debug_frame   0x00000000       0x68 C:\Users\Nandi\AppData\Local\V.Micro\Arduino\Builds\sharpmem\Arduino_STM32_mapleMini\sharpmem.cpp.o
 .debug_frame   0x00000068      0x308 C:\Users\Nandi\AppData\Local\V.Micro\Arduino\Builds\sharpmem\Arduino_STM32_mapleMini\SPI\SPI.cpp.o
 .debug_frame   0x00000370      0x478 C:\Users\Nandi\AppData\Local\V.Micro\Arduino\Builds\sharpmem\Arduino_STM32_mapleMini\Adafruit-GFX-Library-master\Adafruit_GFX.cpp.o
 .debug_frame   0x000007e8       0xd0 C:\Users\Nandi\AppData\Local\V.Micro\Arduino\Builds\sharpmem\Arduino_STM32_mapleMini\SharpMemSTM32.cpp.o
 .debug_frame   0x000008b8       0x30 C:\Users\Nandi\AppData\Local\V.Micro\Arduino\Builds\sharpmem\Arduino_STM32_mapleMini/core.a(dma.c.o)
 .debug_frame   0x000008e8      0x19c C:\Users\Nandi\AppData\Local\V.Micro\Arduino\Builds\sharpmem\Arduino_STM32_mapleMini/core.a(dma_f1.c.o)
 .debug_frame   0x00000a84       0x70 C:\Users\Nandi\AppData\Local\V.Micro\Arduino\Builds\sharpmem\Arduino_STM32_mapleMini/core.a(rcc.c.o)
 .debug_frame   0x00000af4       0x98 C:\Users\Nandi\AppData\Local\V.Micro\Arduino\Builds\sharpmem\Arduino_STM32_mapleMini/core.a(rcc_f1.c.o)
 .debug_frame   0x00000b8c       0xec C:\Users\Nandi\AppData\Local\V.Micro\Arduino\Builds\sharpmem\Arduino_STM32_mapleMini/core.a(spi.c.o)
 .debug_frame   0x00000c78       0x48 C:\Users\Nandi\AppData\Local\V.Micro\Arduino\Builds\sharpmem\Arduino_STM32_mapleMini/core.a(spi_f1.c.o)
 .debug_frame   0x00000cc0       0x68 C:\Users\Nandi\AppData\Local\V.Micro\Arduino\Builds\sharpmem\Arduino_STM32_mapleMini/core.a(systick.c.o)
 .debug_frame   0x00000d28      0x188 C:\Users\Nandi\AppData\Local\V.Micro\Arduino\Builds\sharpmem\Arduino_STM32_mapleMini/core.a(timer.c.o)
 .debug_frame   0x00000eb0       0xc8 C:\Users\Nandi\AppData\Local\V.Micro\Arduino\Builds\sharpmem\Arduino_STM32_mapleMini/core.a(util.c.o)
 .debug_frame   0x00000f78       0x20 C:\Users\Nandi\AppData\Local\V.Micro\Arduino\Builds\sharpmem\Arduino_STM32_mapleMini/core.a(cxxabi-compat.cpp.o)
 .debug_frame   0x00000f98       0x38 C:\Users\Nandi\AppData\Local\V.Micro\Arduino\Builds\sharpmem\Arduino_STM32_mapleMini/core.a(main.cpp.o)
 .debug_frame   0x00000fd0      0x320 C:\Users\Nandi\AppData\Local\V.Micro\Arduino\Builds\sharpmem\Arduino_STM32_mapleMini/core.a(Print.cpp.o)
 .debug_frame   0x000012f0      0x1f0 C:\Users\Nandi\AppData\Local\V.Micro\Arduino\Builds\sharpmem\Arduino_STM32_mapleMini/core.a(usb_serial.cpp.o)
 .debug_frame   0x000014e0       0x30 C:\Users\Nandi\AppData\Local\V.Micro\Arduino\Builds\sharpmem\Arduino_STM32_mapleMini/core.a(wirish_digital.cpp.o)
 .debug_frame   0x00001510       0x30 C:\Users\Nandi\AppData\Local\V.Micro\Arduino\Builds\sharpmem\Arduino_STM32_mapleMini/core.a(wirish_time.cpp.o)
 .debug_frame   0x00001540       0x2c C:\Users\Nandi\AppData\Local\V.Micro\Arduino\Builds\sharpmem\Arduino_STM32_mapleMini/core.a(wirish_digital_f1.cpp.o)
 .debug_frame   0x0000156c       0x28 C:\Users\Nandi\AppData\Local\V.Micro\Arduino\Builds\sharpmem\Arduino_STM32_mapleMini/core.a(start_c.c.o)
 .debug_frame   0x00001594       0x38 C:\Users\Nandi\AppData\Local\V.Micro\Arduino\Builds\sharpmem\Arduino_STM32_mapleMini/core.a(board.cpp.o)
 .debug_frame   0x000015cc       0x84 C:\Users\Nandi\AppData\Local\V.Micro\Arduino\Builds\sharpmem\Arduino_STM32_mapleMini/core.a(boards.cpp.o)
 .debug_frame   0x00001650       0x68 C:\Users\Nandi\AppData\Local\V.Micro\Arduino\Builds\sharpmem\Arduino_STM32_mapleMini/core.a(boards_setup.cpp.o)
 .debug_frame   0x000016b8       0x64 C:\Users\Nandi\AppData\Local\V.Micro\Arduino\Builds\sharpmem\Arduino_STM32_mapleMini/core.a(adc.c.o)
 .debug_frame   0x0000171c       0x70 C:\Users\Nandi\AppData\Local\V.Micro\Arduino\Builds\sharpmem\Arduino_STM32_mapleMini/core.a(adc_f1.c.o)
 .debug_frame   0x0000178c       0x20 C:\Users\Nandi\AppData\Local\V.Micro\Arduino\Builds\sharpmem\Arduino_STM32_mapleMini/core.a(flash.c.o)
 .debug_frame   0x000017ac       0x7c C:\Users\Nandi\AppData\Local\V.Micro\Arduino\Builds\sharpmem\Arduino_STM32_mapleMini/core.a(gpio_f1.c.o)
 .debug_frame   0x00001828       0x30 C:\Users\Nandi\AppData\Local\V.Micro\Arduino\Builds\sharpmem\Arduino_STM32_mapleMini/core.a(iwdg.c.o)
 .debug_frame   0x00001858       0x5c C:\Users\Nandi\AppData\Local\V.Micro\Arduino\Builds\sharpmem\Arduino_STM32_mapleMini/core.a(nvic.c.o)
 .debug_frame   0x000018b4       0xa4 C:\Users\Nandi\AppData\Local\V.Micro\Arduino\Builds\sharpmem\Arduino_STM32_mapleMini/core.a(usart.c.o)
 .debug_frame   0x00001958       0xac C:\Users\Nandi\AppData\Local\V.Micro\Arduino\Builds\sharpmem\Arduino_STM32_mapleMini/core.a(usart_f1.c.o)
 .debug_frame   0x00001a04       0x28 C:\Users\Nandi\AppData\Local\V.Micro\Arduino\Builds\sharpmem\Arduino_STM32_mapleMini/core.a(usart_private.c.o)
 .debug_frame   0x00001a2c       0x5c C:\Users\Nandi\AppData\Local\V.Micro\Arduino\Builds\sharpmem\Arduino_STM32_mapleMini/core.a(usb.c.o)
 .debug_frame   0x00001a88      0x2a0 C:\Users\Nandi\AppData\Local\V.Micro\Arduino\Builds\sharpmem\Arduino_STM32_mapleMini/core.a(usb_cdcacm.c.o)
 .debug_frame   0x00001d28       0x7c C:\Users\Nandi\AppData\Local\V.Micro\Arduino\Builds\sharpmem\Arduino_STM32_mapleMini/core.a(usb_reg_map.c.o)
 .debug_frame   0x00001da4      0x1b0 C:\Users\Nandi\AppData\Local\V.Micro\Arduino\Builds\sharpmem\Arduino_STM32_mapleMini/core.a(usb_core.c.o)
 .debug_frame   0x00001f54       0x28 C:\Users\Nandi\AppData\Local\V.Micro\Arduino\Builds\sharpmem\Arduino_STM32_mapleMini/core.a(usb_init.c.o)
 .debug_frame   0x00001f7c       0x44 C:\Users\Nandi\AppData\Local\V.Micro\Arduino\Builds\sharpmem\Arduino_STM32_mapleMini/core.a(usb_mem.c.o)
 .debug_frame   0x00001fc0      0x3d0 C:\Users\Nandi\AppData\Local\V.Micro\Arduino\Builds\sharpmem\Arduino_STM32_mapleMini/core.a(usb_regs.c.o)
 .debug_frame   0x00002390       0xec C:\Users\Nandi\AppData\Local\V.Micro\Arduino\Builds\sharpmem\Arduino_STM32_mapleMini/core.a(HardwareSerial.cpp.o)
 .debug_frame   0x0000247c       0x30 C:\Users\Nandi\AppData\Local\V.Micro\Arduino\Builds\sharpmem\Arduino_STM32_mapleMini/core.a(wirish_debug.cpp.o)
 .debug_frame   0x000024ac       0x28 C:\Users\Nandi\AppData\Local\V.Micro\Arduino\Builds\sharpmem\Arduino_STM32_mapleMini/core.a(gpio.c.o)
 .debug_frame   0x000024d4       0x2c c:/users/nandi/appdata/roaming/arduino15/packages/arduino/tools/arm-none-eabi-gcc/4.8.3-2014q1/bin/../lib/gcc/arm-none-eabi/4.8.3/armv7-m\libgcc.a(_fixdfdi.o)
 .debug_frame   0x00002500       0x2c c:/users/nandi/appdata/roaming/arduino15/packages/arduino/tools/arm-none-eabi-gcc/4.8.3-2014q1/bin/../lib/gcc/arm-none-eabi/4.8.3/armv7-m\libgcc.a(_fixunsdfdi.o)
 .debug_frame   0x0000252c       0x58 c:/users/nandi/appdata/roaming/arduino15/packages/arduino/tools/arm-none-eabi-gcc/4.8.3-2014q1/bin/../lib/gcc/arm-none-eabi/4.8.3/armv7-m\libgcc.a(bpabi.o)
 .debug_frame   0x00002584       0x34 c:/users/nandi/appdata/roaming/arduino15/packages/arduino/tools/arm-none-eabi-gcc/4.8.3-2014q1/bin/../lib/gcc/arm-none-eabi/4.8.3/armv7-m\libgcc.a(_divdi3.o)
 .debug_frame   0x000025b8       0x34 c:/users/nandi/appdata/roaming/arduino15/packages/arduino/tools/arm-none-eabi-gcc/4.8.3-2014q1/bin/../lib/gcc/arm-none-eabi/4.8.3/armv7-m\libgcc.a(_udivdi3.o)
 .debug_frame   0x000025ec       0x28 c:/users/nandi/appdata/roaming/arduino15/packages/arduino/tools/arm-none-eabi-gcc/4.8.3-2014q1/bin/../lib/gcc/arm-none-eabi/4.8.3/../../../../arm-none-eabi/lib/armv7-m\libc.a(lib_a-exit.o)
 .debug_frame   0x00002614       0x2c c:/users/nandi/appdata/roaming/arduino15/packages/arduino/tools/arm-none-eabi-gcc/4.8.3-2014q1/bin/../lib/gcc/arm-none-eabi/4.8.3/../../../../arm-none-eabi/lib/armv7-m\libc.a(lib_a-init.o)
 .debug_frame   0x00002640       0x2c c:/users/nandi/appdata/roaming/arduino15/packages/arduino/tools/arm-none-eabi-gcc/4.8.3-2014q1/bin/../lib/gcc/arm-none-eabi/4.8.3/../../../../arm-none-eabi/lib/armv7-m\libc.a(lib_a-memset.o)
 .debug_frame   0x0000266c       0x38 c:/users/nandi/appdata/roaming/arduino15/packages/arduino/tools/arm-none-eabi-gcc/4.8.3-2014q1/bin/../lib/gcc/arm-none-eabi/4.8.3/../../../../arm-none-eabi/lib/armv7-m\libc.a(lib_a-rand.o)
 .debug_frame   0x000026a4       0x20 c:/users/nandi/appdata/roaming/arduino15/packages/arduino/tools/arm-none-eabi-gcc/4.8.3-2014q1/bin/../lib/gcc/arm-none-eabi/4.8.3/../../../../arm-none-eabi/lib/armv7-m\libc.a(lib_a-strlen.o)
 .debug_frame   0x000026c4       0x2c c:/users/nandi/appdata/roaming/arduino15/packages/arduino/tools/arm-none-eabi-gcc/4.8.3-2014q1/bin/../lib/gcc/arm-none-eabi/4.8.3/../../../../arm-none-eabi/lib/armv7-m\libc.a(lib_a-strncpy.o)
 .debug_frame   0x000026f0       0x48 c:/users/nandi/appdata/roaming/arduino15/packages/arduino/tools/arm-none-eabi-gcc/4.8.3-2014q1/bin/../lib/gcc/arm-none-eabi/4.8.3/../../../../arm-none-eabi/lib/armv7-m\libc.a(lib_a-__call_atexit.o)
 .debug_frame   0x00002738       0x20 c:/users/nandi/appdata/roaming/arduino15/packages/arduino/tools/arm-none-eabi-gcc/4.8.3-2014q1/bin/../lib/gcc/arm-none-eabi/4.8.3/../../../../arm-none-eabi/lib/armv7-m\libc.a(lib_a-atexit.o)
 .debug_frame   0x00002758       0x2c c:/users/nandi/appdata/roaming/arduino15/packages/arduino/tools/arm-none-eabi-gcc/4.8.3-2014q1/bin/../lib/gcc/arm-none-eabi/4.8.3/../../../../arm-none-eabi/lib/armv7-m\libc.a(lib_a-fini.o)
 .debug_frame   0x00002784       0x30 c:/users/nandi/appdata/roaming/arduino15/packages/arduino/tools/arm-none-eabi-gcc/4.8.3-2014q1/bin/../lib/gcc/arm-none-eabi/4.8.3/../../../../arm-none-eabi/lib/armv7-m\libc.a(lib_a-__atexit.o)
 .debug_frame   0x000027b4       0x20 c:/users/nandi/appdata/roaming/arduino15/packages/arduino/tools/arm-none-eabi-gcc/4.8.3-2014q1/bin/../lib/gcc/arm-none-eabi/4.8.3/../../../../arm-none-eabi/lib/armv7-m\libnosys.a(_exit.o)

.debug_str      0x00000000     0x8359
 *(.debug_str)
 .debug_str     0x00000000      0xbd5 C:\Users\Nandi\AppData\Local\V.Micro\Arduino\Builds\sharpmem\Arduino_STM32_mapleMini\sharpmem.cpp.o
                                0xc6f (size before relaxing)
 .debug_str     0x00000bd5      0xd75 C:\Users\Nandi\AppData\Local\V.Micro\Arduino\Builds\sharpmem\Arduino_STM32_mapleMini\SPI\SPI.cpp.o
                               0x1819 (size before relaxing)
 .debug_str     0x0000194a      0x114 C:\Users\Nandi\AppData\Local\V.Micro\Arduino\Builds\sharpmem\Arduino_STM32_mapleMini\Adafruit-GFX-Library-master\glcdfont.c.o
                                0x12b (size before relaxing)
 .debug_str     0x00001a5e      0x84f C:\Users\Nandi\AppData\Local\V.Micro\Arduino\Builds\sharpmem\Arduino_STM32_mapleMini\Adafruit-GFX-Library-master\Adafruit_GFX.cpp.o
                               0x10ae (size before relaxing)
 .debug_str     0x000022ad      0x269 C:\Users\Nandi\AppData\Local\V.Micro\Arduino\Builds\sharpmem\Arduino_STM32_mapleMini\SharpMemSTM32.cpp.o
                               0x16a2 (size before relaxing)
 .debug_str     0x00002516      0x17e C:\Users\Nandi\AppData\Local\V.Micro\Arduino\Builds\sharpmem\Arduino_STM32_mapleMini/core.a(dma.c.o)
                                0xa2d (size before relaxing)
 .debug_str     0x00002694      0x944 C:\Users\Nandi\AppData\Local\V.Micro\Arduino\Builds\sharpmem\Arduino_STM32_mapleMini/core.a(dma_f1.c.o)
                               0x1378 (size before relaxing)
 .debug_str     0x00002fd8      0x185 C:\Users\Nandi\AppData\Local\V.Micro\Arduino\Builds\sharpmem\Arduino_STM32_mapleMini/core.a(rcc.c.o)
                                0x54e (size before relaxing)
 .debug_str     0x0000315d      0x2d1 C:\Users\Nandi\AppData\Local\V.Micro\Arduino\Builds\sharpmem\Arduino_STM32_mapleMini/core.a(rcc_f1.c.o)
                                0x7ef (size before relaxing)
 .debug_str     0x0000342e      0x104 C:\Users\Nandi\AppData\Local\V.Micro\Arduino\Builds\sharpmem\Arduino_STM32_mapleMini/core.a(spi.c.o)
                                0xb97 (size before relaxing)
 .debug_str     0x00003532      0x14f C:\Users\Nandi\AppData\Local\V.Micro\Arduino\Builds\sharpmem\Arduino_STM32_mapleMini/core.a(spi_f1.c.o)
                                0x9a7 (size before relaxing)
 .debug_str     0x00003681       0xe2 C:\Users\Nandi\AppData\Local\V.Micro\Arduino\Builds\sharpmem\Arduino_STM32_mapleMini/core.a(systick.c.o)
                                0x25f (size before relaxing)
 .debug_str     0x00003763      0x44c C:\Users\Nandi\AppData\Local\V.Micro\Arduino\Builds\sharpmem\Arduino_STM32_mapleMini/core.a(timer.c.o)
                                0xdef (size before relaxing)
 .debug_str     0x00003baf      0x16d C:\Users\Nandi\AppData\Local\V.Micro\Arduino\Builds\sharpmem\Arduino_STM32_mapleMini/core.a(util.c.o)
                                0xa2a (size before relaxing)
 .debug_str     0x00003d1c       0x71 C:\Users\Nandi\AppData\Local\V.Micro\Arduino\Builds\sharpmem\Arduino_STM32_mapleMini/core.a(cxxabi-compat.cpp.o)
                                0x163 (size before relaxing)
 .debug_str     0x00003d8d       0x72 C:\Users\Nandi\AppData\Local\V.Micro\Arduino\Builds\sharpmem\Arduino_STM32_mapleMini/core.a(main.cpp.o)
                                0x18c (size before relaxing)
 .debug_str     0x00003dff      0xb89 C:\Users\Nandi\AppData\Local\V.Micro\Arduino\Builds\sharpmem\Arduino_STM32_mapleMini/core.a(Print.cpp.o)
                                0xe3a (size before relaxing)
 .debug_str     0x00004988      0x8b2 C:\Users\Nandi\AppData\Local\V.Micro\Arduino\Builds\sharpmem\Arduino_STM32_mapleMini/core.a(usb_serial.cpp.o)
                               0x1ba7 (size before relaxing)
 .debug_str     0x0000523a       0x8a C:\Users\Nandi\AppData\Local\V.Micro\Arduino\Builds\sharpmem\Arduino_STM32_mapleMini/core.a(wirish_digital.cpp.o)
                                0x687 (size before relaxing)
 .debug_str     0x000052c4       0x6c C:\Users\Nandi\AppData\Local\V.Micro\Arduino\Builds\sharpmem\Arduino_STM32_mapleMini/core.a(wirish_time.cpp.o)
                                0x253 (size before relaxing)
 .debug_str     0x00005330       0x75 C:\Users\Nandi\AppData\Local\V.Micro\Arduino\Builds\sharpmem\Arduino_STM32_mapleMini/core.a(wirish_digital_f1.cpp.o)
                                0x7a9 (size before relaxing)
 .debug_str     0x000053a5       0xeb C:\Users\Nandi\AppData\Local\V.Micro\Arduino\Builds\sharpmem\Arduino_STM32_mapleMini/core.a(start_c.c.o)
                                0x1c9 (size before relaxing)
 .debug_str     0x00005490      0x114 C:\Users\Nandi\AppData\Local\V.Micro\Arduino\Builds\sharpmem\Arduino_STM32_mapleMini/core.a(board.cpp.o)
                                0xca8 (size before relaxing)
 .debug_str     0x000055a4      0x4bf C:\Users\Nandi\AppData\Local\V.Micro\Arduino\Builds\sharpmem\Arduino_STM32_mapleMini/core.a(boards.cpp.o)
                                0xceb (size before relaxing)
 .debug_str     0x00005a63      0x297 C:\Users\Nandi\AppData\Local\V.Micro\Arduino\Builds\sharpmem\Arduino_STM32_mapleMini/core.a(boards_setup.cpp.o)
                                0xf8c (size before relaxing)
 .debug_str     0x00005cfa      0x1f3 C:\Users\Nandi\AppData\Local\V.Micro\Arduino\Builds\sharpmem\Arduino_STM32_mapleMini/core.a(adc.c.o)
                                0x66a (size before relaxing)
 .debug_str     0x00005eed       0xac C:\Users\Nandi\AppData\Local\V.Micro\Arduino\Builds\sharpmem\Arduino_STM32_mapleMini/core.a(adc_f1.c.o)
                                0x89d (size before relaxing)
 .debug_str     0x00005f99       0x69 C:\Users\Nandi\AppData\Local\V.Micro\Arduino\Builds\sharpmem\Arduino_STM32_mapleMini/core.a(flash.c.o)
                                0x1f9 (size before relaxing)
 .debug_str     0x00006002      0x2e0 C:\Users\Nandi\AppData\Local\V.Micro\Arduino\Builds\sharpmem\Arduino_STM32_mapleMini/core.a(gpio_f1.c.o)
                                0x7b1 (size before relaxing)
 .debug_str     0x000062e2       0x73 C:\Users\Nandi\AppData\Local\V.Micro\Arduino\Builds\sharpmem\Arduino_STM32_mapleMini/core.a(iwdg.c.o)
                                0x256 (size before relaxing)
 .debug_str     0x00006355       0xd8 C:\Users\Nandi\AppData\Local\V.Micro\Arduino\Builds\sharpmem\Arduino_STM32_mapleMini/core.a(nvic.c.o)
                                0x702 (size before relaxing)
 .debug_str     0x0000642d       0xe4 C:\Users\Nandi\AppData\Local\V.Micro\Arduino\Builds\sharpmem\Arduino_STM32_mapleMini/core.a(usart.c.o)
                                0x977 (size before relaxing)
 .debug_str     0x00006511      0x164 C:\Users\Nandi\AppData\Local\V.Micro\Arduino\Builds\sharpmem\Arduino_STM32_mapleMini/core.a(usart_f1.c.o)
                                0xa88 (size before relaxing)
 .debug_str     0x00006675       0x65 C:\Users\Nandi\AppData\Local\V.Micro\Arduino\Builds\sharpmem\Arduino_STM32_mapleMini/core.a(usart_private.c.o)
                                0x87d (size before relaxing)
 .debug_str     0x000066da      0x56d C:\Users\Nandi\AppData\Local\V.Micro\Arduino\Builds\sharpmem\Arduino_STM32_mapleMini/core.a(usb.c.o)
                                0xa4e (size before relaxing)
 .debug_str     0x00006c47      0x87f C:\Users\Nandi\AppData\Local\V.Micro\Arduino\Builds\sharpmem\Arduino_STM32_mapleMini/core.a(usb_cdcacm.c.o)
                               0x1810 (size before relaxing)
 .debug_str     0x000074c6       0xcf C:\Users\Nandi\AppData\Local\V.Micro\Arduino\Builds\sharpmem\Arduino_STM32_mapleMini/core.a(usb_reg_map.c.o)
                                0x2f5 (size before relaxing)
 .debug_str     0x00007595      0x49b C:\Users\Nandi\AppData\Local\V.Micro\Arduino\Builds\sharpmem\Arduino_STM32_mapleMini/core.a(usb_core.c.o)
                                0xac3 (size before relaxing)
 .debug_str     0x00007a30       0x97 C:\Users\Nandi\AppData\Local\V.Micro\Arduino\Builds\sharpmem\Arduino_STM32_mapleMini/core.a(usb_init.c.o)
                                0x51e (size before relaxing)
 .debug_str     0x00007ac7       0x9b C:\Users\Nandi\AppData\Local\V.Micro\Arduino\Builds\sharpmem\Arduino_STM32_mapleMini/core.a(usb_mem.c.o)
                                0x1d4 (size before relaxing)
 .debug_str     0x00007b62      0x3d3 C:\Users\Nandi\AppData\Local\V.Micro\Arduino\Builds\sharpmem\Arduino_STM32_mapleMini/core.a(usb_regs.c.o)
                                0x55c (size before relaxing)
 .debug_str     0x00007f35      0x2bf C:\Users\Nandi\AppData\Local\V.Micro\Arduino\Builds\sharpmem\Arduino_STM32_mapleMini/core.a(HardwareSerial.cpp.o)
                               0x1a75 (size before relaxing)
 .debug_str     0x000081f4      0x109 C:\Users\Nandi\AppData\Local\V.Micro\Arduino\Builds\sharpmem\Arduino_STM32_mapleMini/core.a(wirish_debug.cpp.o)
                                0x307 (size before relaxing)
 .debug_str     0x000082fd       0x5c C:\Users\Nandi\AppData\Local\V.Micro\Arduino\Builds\sharpmem\Arduino_STM32_mapleMini/core.a(gpio.c.o)
                                0x43d (size before relaxing)

.debug_loc      0x00000000     0x9d1e
 *(.debug_loc)
 .debug_loc     0x00000000       0x7f C:\Users\Nandi\AppData\Local\V.Micro\Arduino\Builds\sharpmem\Arduino_STM32_mapleMini\sharpmem.cpp.o
 .debug_loc     0x0000007f      0xe0d C:\Users\Nandi\AppData\Local\V.Micro\Arduino\Builds\sharpmem\Arduino_STM32_mapleMini\SPI\SPI.cpp.o
 .debug_loc     0x00000e8c     0x17cf C:\Users\Nandi\AppData\Local\V.Micro\Arduino\Builds\sharpmem\Arduino_STM32_mapleMini\Adafruit-GFX-Library-master\Adafruit_GFX.cpp.o
 .debug_loc     0x0000265b      0x3f0 C:\Users\Nandi\AppData\Local\V.Micro\Arduino\Builds\sharpmem\Arduino_STM32_mapleMini\SharpMemSTM32.cpp.o
 .debug_loc     0x00002a4b       0x42 C:\Users\Nandi\AppData\Local\V.Micro\Arduino\Builds\sharpmem\Arduino_STM32_mapleMini/core.a(dma.c.o)
 .debug_loc     0x00002a8d      0xbfb C:\Users\Nandi\AppData\Local\V.Micro\Arduino\Builds\sharpmem\Arduino_STM32_mapleMini/core.a(dma_f1.c.o)
 .debug_loc     0x00003688      0x131 C:\Users\Nandi\AppData\Local\V.Micro\Arduino\Builds\sharpmem\Arduino_STM32_mapleMini/core.a(rcc.c.o)
 .debug_loc     0x000037b9      0x352 C:\Users\Nandi\AppData\Local\V.Micro\Arduino\Builds\sharpmem\Arduino_STM32_mapleMini/core.a(rcc_f1.c.o)
 .debug_loc     0x00003b0b      0x34d C:\Users\Nandi\AppData\Local\V.Micro\Arduino\Builds\sharpmem\Arduino_STM32_mapleMini/core.a(spi.c.o)
 .debug_loc     0x00003e58      0x19f C:\Users\Nandi\AppData\Local\V.Micro\Arduino\Builds\sharpmem\Arduino_STM32_mapleMini/core.a(spi_f1.c.o)
 .debug_loc     0x00003ff7      0xc03 C:\Users\Nandi\AppData\Local\V.Micro\Arduino\Builds\sharpmem\Arduino_STM32_mapleMini/core.a(timer.c.o)
 .debug_loc     0x00004bfa      0x27f C:\Users\Nandi\AppData\Local\V.Micro\Arduino\Builds\sharpmem\Arduino_STM32_mapleMini/core.a(util.c.o)
 .debug_loc     0x00004e79      0xf88 C:\Users\Nandi\AppData\Local\V.Micro\Arduino\Builds\sharpmem\Arduino_STM32_mapleMini/core.a(Print.cpp.o)
 .debug_loc     0x00005e01      0x534 C:\Users\Nandi\AppData\Local\V.Micro\Arduino\Builds\sharpmem\Arduino_STM32_mapleMini/core.a(usb_serial.cpp.o)
 .debug_loc     0x00006335       0x7c C:\Users\Nandi\AppData\Local\V.Micro\Arduino\Builds\sharpmem\Arduino_STM32_mapleMini/core.a(wirish_digital.cpp.o)
 .debug_loc     0x000063b1       0xb5 C:\Users\Nandi\AppData\Local\V.Micro\Arduino\Builds\sharpmem\Arduino_STM32_mapleMini/core.a(wirish_time.cpp.o)
 .debug_loc     0x00006466       0xdf C:\Users\Nandi\AppData\Local\V.Micro\Arduino\Builds\sharpmem\Arduino_STM32_mapleMini/core.a(wirish_digital_f1.cpp.o)
 .debug_loc     0x00006545       0xa5 C:\Users\Nandi\AppData\Local\V.Micro\Arduino\Builds\sharpmem\Arduino_STM32_mapleMini/core.a(start_c.c.o)
 .debug_loc     0x000065ea      0x246 C:\Users\Nandi\AppData\Local\V.Micro\Arduino\Builds\sharpmem\Arduino_STM32_mapleMini/core.a(boards.cpp.o)
 .debug_loc     0x00006830      0x135 C:\Users\Nandi\AppData\Local\V.Micro\Arduino\Builds\sharpmem\Arduino_STM32_mapleMini/core.a(adc.c.o)
 .debug_loc     0x00006965      0x1b3 C:\Users\Nandi\AppData\Local\V.Micro\Arduino\Builds\sharpmem\Arduino_STM32_mapleMini/core.a(adc_f1.c.o)
 .debug_loc     0x00006b18       0x3f C:\Users\Nandi\AppData\Local\V.Micro\Arduino\Builds\sharpmem\Arduino_STM32_mapleMini/core.a(flash.c.o)
 .debug_loc     0x00006b57      0x267 C:\Users\Nandi\AppData\Local\V.Micro\Arduino\Builds\sharpmem\Arduino_STM32_mapleMini/core.a(gpio_f1.c.o)
 .debug_loc     0x00006dbe      0x121 C:\Users\Nandi\AppData\Local\V.Micro\Arduino\Builds\sharpmem\Arduino_STM32_mapleMini/core.a(nvic.c.o)
 .debug_loc     0x00006edf      0x247 C:\Users\Nandi\AppData\Local\V.Micro\Arduino\Builds\sharpmem\Arduino_STM32_mapleMini/core.a(usart.c.o)
 .debug_loc     0x00007126      0x24d C:\Users\Nandi\AppData\Local\V.Micro\Arduino\Builds\sharpmem\Arduino_STM32_mapleMini/core.a(usart_f1.c.o)
 .debug_loc     0x00007373       0x3f C:\Users\Nandi\AppData\Local\V.Micro\Arduino\Builds\sharpmem\Arduino_STM32_mapleMini/core.a(usart_private.c.o)
 .debug_loc     0x000073b2      0x4c8 C:\Users\Nandi\AppData\Local\V.Micro\Arduino\Builds\sharpmem\Arduino_STM32_mapleMini/core.a(usb.c.o)
 .debug_loc     0x0000787a      0x74b C:\Users\Nandi\AppData\Local\V.Micro\Arduino\Builds\sharpmem\Arduino_STM32_mapleMini/core.a(usb_cdcacm.c.o)
 .debug_loc     0x00007fc5      0x3e3 C:\Users\Nandi\AppData\Local\V.Micro\Arduino\Builds\sharpmem\Arduino_STM32_mapleMini/core.a(usb_reg_map.c.o)
 .debug_loc     0x000083a8      0x7ed C:\Users\Nandi\AppData\Local\V.Micro\Arduino\Builds\sharpmem\Arduino_STM32_mapleMini/core.a(usb_core.c.o)
 .debug_loc     0x00008b95      0x293 C:\Users\Nandi\AppData\Local\V.Micro\Arduino\Builds\sharpmem\Arduino_STM32_mapleMini/core.a(usb_mem.c.o)
 .debug_loc     0x00008e28      0xbab C:\Users\Nandi\AppData\Local\V.Micro\Arduino\Builds\sharpmem\Arduino_STM32_mapleMini/core.a(usb_regs.c.o)
 .debug_loc     0x000099d3      0x31f C:\Users\Nandi\AppData\Local\V.Micro\Arduino\Builds\sharpmem\Arduino_STM32_mapleMini/core.a(HardwareSerial.cpp.o)
 .debug_loc     0x00009cf2       0x2c C:\Users\Nandi\AppData\Local\V.Micro\Arduino\Builds\sharpmem\Arduino_STM32_mapleMini/core.a(gpio.c.o)

.debug_macinfo
 *(.debug_macinfo)

.debug_weaknames
 *(.debug_weaknames)

.debug_funcnames
 *(.debug_funcnames)

.debug_typenames
 *(.debug_typenames)

.debug_varnames
 *(.debug_varnames)

.note.gnu.arm.ident
 *(.note.gnu.arm.ident)

.ARM.attributes
                0x00000000       0x29
 *(.ARM.attributes)
 .ARM.attributes
                0x00000000       0x1d c:/users/nandi/appdata/roaming/arduino15/packages/arduino/tools/arm-none-eabi-gcc/4.8.3-2014q1/bin/../lib/gcc/arm-none-eabi/4.8.3/armv7-m/crti.o
 .ARM.attributes
                0x0000001d       0x2d c:/users/nandi/appdata/roaming/arduino15/packages/arduino/tools/arm-none-eabi-gcc/4.8.3-2014q1/bin/../lib/gcc/arm-none-eabi/4.8.3/armv7-m/crtbegin.o
 .ARM.attributes
                0x0000004a       0x1b c:/users/nandi/appdata/roaming/arduino15/packages/arduino/tools/arm-none-eabi-gcc/4.8.3-2014q1/bin/../lib/gcc/arm-none-eabi/4.8.3/../../../../arm-none-eabi/lib/armv7-m/crt0.o
 .ARM.attributes
                0x00000065       0x33 C:\Users\Nandi\AppData\Local\V.Micro\Arduino\Builds\sharpmem\Arduino_STM32_mapleMini\sharpmem.cpp.o
 .ARM.attributes
                0x00000098       0x33 C:\Users\Nandi\AppData\Local\V.Micro\Arduino\Builds\sharpmem\Arduino_STM32_mapleMini\SPI\SPI.cpp.o
 .ARM.attributes
                0x000000cb       0x33 C:\Users\Nandi\AppData\Local\V.Micro\Arduino\Builds\sharpmem\Arduino_STM32_mapleMini\Adafruit-GFX-Library-master\glcdfont.c.o
 .ARM.attributes
                0x000000fe       0x33 C:\Users\Nandi\AppData\Local\V.Micro\Arduino\Builds\sharpmem\Arduino_STM32_mapleMini\Adafruit-GFX-Library-master\Adafruit_GFX.cpp.o
 .ARM.attributes
                0x00000131       0x33 C:\Users\Nandi\AppData\Local\V.Micro\Arduino\Builds\sharpmem\Arduino_STM32_mapleMini\SharpMemSTM32.cpp.o
 .ARM.attributes
                0x00000164       0x1b C:\Users\Nandi\AppData\Local\V.Micro\Arduino\Builds\sharpmem\Arduino_STM32_mapleMini/core.a(exc.S.o)
 .ARM.attributes
                0x0000017f       0x1b C:\Users\Nandi\AppData\Local\V.Micro\Arduino\Builds\sharpmem\Arduino_STM32_mapleMini/core.a(isrs.S.o)
 .ARM.attributes
                0x0000019a       0x1b C:\Users\Nandi\AppData\Local\V.Micro\Arduino\Builds\sharpmem\Arduino_STM32_mapleMini/core.a(vector_table.S.o)
 .ARM.attributes
                0x000001b5       0x33 C:\Users\Nandi\AppData\Local\V.Micro\Arduino\Builds\sharpmem\Arduino_STM32_mapleMini/core.a(dma.c.o)
 .ARM.attributes
                0x000001e8       0x33 C:\Users\Nandi\AppData\Local\V.Micro\Arduino\Builds\sharpmem\Arduino_STM32_mapleMini/core.a(dma_f1.c.o)
 .ARM.attributes
                0x0000021b       0x33 C:\Users\Nandi\AppData\Local\V.Micro\Arduino\Builds\sharpmem\Arduino_STM32_mapleMini/core.a(rcc.c.o)
 .ARM.attributes
                0x0000024e       0x33 C:\Users\Nandi\AppData\Local\V.Micro\Arduino\Builds\sharpmem\Arduino_STM32_mapleMini/core.a(rcc_f1.c.o)
 .ARM.attributes
                0x00000281       0x33 C:\Users\Nandi\AppData\Local\V.Micro\Arduino\Builds\sharpmem\Arduino_STM32_mapleMini/core.a(spi.c.o)
 .ARM.attributes
                0x000002b4       0x33 C:\Users\Nandi\AppData\Local\V.Micro\Arduino\Builds\sharpmem\Arduino_STM32_mapleMini/core.a(spi_f1.c.o)
 .ARM.attributes
                0x000002e7       0x33 C:\Users\Nandi\AppData\Local\V.Micro\Arduino\Builds\sharpmem\Arduino_STM32_mapleMini/core.a(systick.c.o)
 .ARM.attributes
                0x0000031a       0x33 C:\Users\Nandi\AppData\Local\V.Micro\Arduino\Builds\sharpmem\Arduino_STM32_mapleMini/core.a(timer.c.o)
 .ARM.attributes
                0x0000034d       0x33 C:\Users\Nandi\AppData\Local\V.Micro\Arduino\Builds\sharpmem\Arduino_STM32_mapleMini/core.a(util.c.o)
 .ARM.attributes
                0x00000380       0x33 C:\Users\Nandi\AppData\Local\V.Micro\Arduino\Builds\sharpmem\Arduino_STM32_mapleMini/core.a(cxxabi-compat.cpp.o)
 .ARM.attributes
                0x000003b3       0x33 C:\Users\Nandi\AppData\Local\V.Micro\Arduino\Builds\sharpmem\Arduino_STM32_mapleMini/core.a(main.cpp.o)
 .ARM.attributes
                0x000003e6       0x33 C:\Users\Nandi\AppData\Local\V.Micro\Arduino\Builds\sharpmem\Arduino_STM32_mapleMini/core.a(Print.cpp.o)
 .ARM.attributes
                0x00000419       0x33 C:\Users\Nandi\AppData\Local\V.Micro\Arduino\Builds\sharpmem\Arduino_STM32_mapleMini/core.a(usb_serial.cpp.o)
 .ARM.attributes
                0x0000044c       0x33 C:\Users\Nandi\AppData\Local\V.Micro\Arduino\Builds\sharpmem\Arduino_STM32_mapleMini/core.a(wirish_digital.cpp.o)
 .ARM.attributes
                0x0000047f       0x33 C:\Users\Nandi\AppData\Local\V.Micro\Arduino\Builds\sharpmem\Arduino_STM32_mapleMini/core.a(wirish_time.cpp.o)
 .ARM.attributes
                0x000004b2       0x33 C:\Users\Nandi\AppData\Local\V.Micro\Arduino\Builds\sharpmem\Arduino_STM32_mapleMini/core.a(wirish_digital_f1.cpp.o)
 .ARM.attributes
                0x000004e5       0x1b C:\Users\Nandi\AppData\Local\V.Micro\Arduino\Builds\sharpmem\Arduino_STM32_mapleMini/core.a(start.S.o)
 .ARM.attributes
                0x00000500       0x33 C:\Users\Nandi\AppData\Local\V.Micro\Arduino\Builds\sharpmem\Arduino_STM32_mapleMini/core.a(start_c.c.o)
 .ARM.attributes
                0x00000533       0x33 C:\Users\Nandi\AppData\Local\V.Micro\Arduino\Builds\sharpmem\Arduino_STM32_mapleMini/core.a(board.cpp.o)
 .ARM.attributes
                0x00000566       0x33 C:\Users\Nandi\AppData\Local\V.Micro\Arduino\Builds\sharpmem\Arduino_STM32_mapleMini/core.a(boards.cpp.o)
 .ARM.attributes
                0x00000599       0x33 C:\Users\Nandi\AppData\Local\V.Micro\Arduino\Builds\sharpmem\Arduino_STM32_mapleMini/core.a(boards_setup.cpp.o)
 .ARM.attributes
                0x000005cc       0x33 C:\Users\Nandi\AppData\Local\V.Micro\Arduino\Builds\sharpmem\Arduino_STM32_mapleMini/core.a(adc.c.o)
 .ARM.attributes
                0x000005ff       0x33 C:\Users\Nandi\AppData\Local\V.Micro\Arduino\Builds\sharpmem\Arduino_STM32_mapleMini/core.a(adc_f1.c.o)
 .ARM.attributes
                0x00000632       0x33 C:\Users\Nandi\AppData\Local\V.Micro\Arduino\Builds\sharpmem\Arduino_STM32_mapleMini/core.a(flash.c.o)
 .ARM.attributes
                0x00000665       0x33 C:\Users\Nandi\AppData\Local\V.Micro\Arduino\Builds\sharpmem\Arduino_STM32_mapleMini/core.a(gpio_f1.c.o)
 .ARM.attributes
                0x00000698       0x33 C:\Users\Nandi\AppData\Local\V.Micro\Arduino\Builds\sharpmem\Arduino_STM32_mapleMini/core.a(iwdg.c.o)
 .ARM.attributes
                0x000006cb       0x33 C:\Users\Nandi\AppData\Local\V.Micro\Arduino\Builds\sharpmem\Arduino_STM32_mapleMini/core.a(nvic.c.o)
 .ARM.attributes
                0x000006fe       0x33 C:\Users\Nandi\AppData\Local\V.Micro\Arduino\Builds\sharpmem\Arduino_STM32_mapleMini/core.a(usart.c.o)
 .ARM.attributes
                0x00000731       0x33 C:\Users\Nandi\AppData\Local\V.Micro\Arduino\Builds\sharpmem\Arduino_STM32_mapleMini/core.a(usart_f1.c.o)
 .ARM.attributes
                0x00000764       0x33 C:\Users\Nandi\AppData\Local\V.Micro\Arduino\Builds\sharpmem\Arduino_STM32_mapleMini/core.a(usart_private.c.o)
 .ARM.attributes
                0x00000797       0x33 C:\Users\Nandi\AppData\Local\V.Micro\Arduino\Builds\sharpmem\Arduino_STM32_mapleMini/core.a(usb.c.o)
 .ARM.attributes
                0x000007ca       0x33 C:\Users\Nandi\AppData\Local\V.Micro\Arduino\Builds\sharpmem\Arduino_STM32_mapleMini/core.a(usb_cdcacm.c.o)
 .ARM.attributes
                0x000007fd       0x33 C:\Users\Nandi\AppData\Local\V.Micro\Arduino\Builds\sharpmem\Arduino_STM32_mapleMini/core.a(usb_reg_map.c.o)
 .ARM.attributes
                0x00000830       0x33 C:\Users\Nandi\AppData\Local\V.Micro\Arduino\Builds\sharpmem\Arduino_STM32_mapleMini/core.a(usb_core.c.o)
 .ARM.attributes
                0x00000863       0x33 C:\Users\Nandi\AppData\Local\V.Micro\Arduino\Builds\sharpmem\Arduino_STM32_mapleMini/core.a(usb_init.c.o)
 .ARM.attributes
                0x00000896       0x33 C:\Users\Nandi\AppData\Local\V.Micro\Arduino\Builds\sharpmem\Arduino_STM32_mapleMini/core.a(usb_mem.c.o)
 .ARM.attributes
                0x000008c9       0x33 C:\Users\Nandi\AppData\Local\V.Micro\Arduino\Builds\sharpmem\Arduino_STM32_mapleMini/core.a(usb_regs.c.o)
 .ARM.attributes
                0x000008fc       0x33 C:\Users\Nandi\AppData\Local\V.Micro\Arduino\Builds\sharpmem\Arduino_STM32_mapleMini/core.a(HardwareSerial.cpp.o)
 .ARM.attributes
                0x0000092f       0x33 C:\Users\Nandi\AppData\Local\V.Micro\Arduino\Builds\sharpmem\Arduino_STM32_mapleMini/core.a(wirish_debug.cpp.o)
 .ARM.attributes
                0x00000962       0x33 C:\Users\Nandi\AppData\Local\V.Micro\Arduino\Builds\sharpmem\Arduino_STM32_mapleMini/core.a(gpio.c.o)
 .ARM.attributes
                0x00000995       0x1d c:/users/nandi/appdata/roaming/arduino15/packages/arduino/tools/arm-none-eabi-gcc/4.8.3-2014q1/bin/../lib/gcc/arm-none-eabi/4.8.3/armv7-m\libgcc.a(_arm_addsubdf3.o)
 .ARM.attributes
                0x000009b2       0x1d c:/users/nandi/appdata/roaming/arduino15/packages/arduino/tools/arm-none-eabi-gcc/4.8.3-2014q1/bin/../lib/gcc/arm-none-eabi/4.8.3/armv7-m\libgcc.a(_arm_muldivdf3.o)
 .ARM.attributes
                0x000009cf       0x1d c:/users/nandi/appdata/roaming/arduino15/packages/arduino/tools/arm-none-eabi-gcc/4.8.3-2014q1/bin/../lib/gcc/arm-none-eabi/4.8.3/armv7-m\libgcc.a(_arm_cmpdf2.o)
 .ARM.attributes
                0x000009ec       0x1d c:/users/nandi/appdata/roaming/arduino15/packages/arduino/tools/arm-none-eabi-gcc/4.8.3-2014q1/bin/../lib/gcc/arm-none-eabi/4.8.3/armv7-m\libgcc.a(_arm_fixdfsi.o)
 .ARM.attributes
                0x00000a09       0x1d c:/users/nandi/appdata/roaming/arduino15/packages/arduino/tools/arm-none-eabi-gcc/4.8.3-2014q1/bin/../lib/gcc/arm-none-eabi/4.8.3/armv7-m\libgcc.a(_arm_truncdfsf2.o)
 .ARM.attributes
                0x00000a26       0x1d c:/users/nandi/appdata/roaming/arduino15/packages/arduino/tools/arm-none-eabi-gcc/4.8.3-2014q1/bin/../lib/gcc/arm-none-eabi/4.8.3/armv7-m\libgcc.a(_arm_addsubsf3.o)
 .ARM.attributes
                0x00000a43       0x1d c:/users/nandi/appdata/roaming/arduino15/packages/arduino/tools/arm-none-eabi-gcc/4.8.3-2014q1/bin/../lib/gcc/arm-none-eabi/4.8.3/armv7-m\libgcc.a(_arm_muldivsf3.o)
 .ARM.attributes
                0x00000a60       0x1d c:/users/nandi/appdata/roaming/arduino15/packages/arduino/tools/arm-none-eabi-gcc/4.8.3-2014q1/bin/../lib/gcc/arm-none-eabi/4.8.3/armv7-m\libgcc.a(_arm_cmpsf2.o)
 .ARM.attributes
                0x00000a7d       0x1d c:/users/nandi/appdata/roaming/arduino15/packages/arduino/tools/arm-none-eabi-gcc/4.8.3-2014q1/bin/../lib/gcc/arm-none-eabi/4.8.3/armv7-m\libgcc.a(_arm_fixsfsi.o)
 .ARM.attributes
                0x00000a9a       0x1d c:/users/nandi/appdata/roaming/arduino15/packages/arduino/tools/arm-none-eabi-gcc/4.8.3-2014q1/bin/../lib/gcc/arm-none-eabi/4.8.3/armv7-m\libgcc.a(_aeabi_uldivmod.o)
 .ARM.attributes
                0x00000ab7       0x2d c:/users/nandi/appdata/roaming/arduino15/packages/arduino/tools/arm-none-eabi-gcc/4.8.3-2014q1/bin/../lib/gcc/arm-none-eabi/4.8.3/armv7-m\libgcc.a(_fixdfdi.o)
 .ARM.attributes
                0x00000ae4       0x2d c:/users/nandi/appdata/roaming/arduino15/packages/arduino/tools/arm-none-eabi-gcc/4.8.3-2014q1/bin/../lib/gcc/arm-none-eabi/4.8.3/armv7-m\libgcc.a(_fixunsdfdi.o)
 .ARM.attributes
                0x00000b11       0x2d c:/users/nandi/appdata/roaming/arduino15/packages/arduino/tools/arm-none-eabi-gcc/4.8.3-2014q1/bin/../lib/gcc/arm-none-eabi/4.8.3/armv7-m\libgcc.a(bpabi.o)
 .ARM.attributes
                0x00000b3e       0x1d c:/users/nandi/appdata/roaming/arduino15/packages/arduino/tools/arm-none-eabi-gcc/4.8.3-2014q1/bin/../lib/gcc/arm-none-eabi/4.8.3/armv7-m\libgcc.a(_dvmd_tls.o)
 .ARM.attributes
                0x00000b5b       0x1d c:/users/nandi/appdata/roaming/arduino15/packages/arduino/tools/arm-none-eabi-gcc/4.8.3-2014q1/bin/../lib/gcc/arm-none-eabi/4.8.3/armv7-m\libgcc.a(_arm_fixunsdfsi.o)
 .ARM.attributes
                0x00000b78       0x2d c:/users/nandi/appdata/roaming/arduino15/packages/arduino/tools/arm-none-eabi-gcc/4.8.3-2014q1/bin/../lib/gcc/arm-none-eabi/4.8.3/armv7-m\libgcc.a(_divdi3.o)
 .ARM.attributes
                0x00000ba5       0x2d c:/users/nandi/appdata/roaming/arduino15/packages/arduino/tools/arm-none-eabi-gcc/4.8.3-2014q1/bin/../lib/gcc/arm-none-eabi/4.8.3/armv7-m\libgcc.a(_udivdi3.o)
 .ARM.attributes
                0x00000bd2       0x2d c:/users/nandi/appdata/roaming/arduino15/packages/arduino/tools/arm-none-eabi-gcc/4.8.3-2014q1/bin/../lib/gcc/arm-none-eabi/4.8.3/../../../../arm-none-eabi/lib/armv7-m\libc.a(lib_a-exit.o)
 .ARM.attributes
                0x00000bff       0x2d c:/users/nandi/appdata/roaming/arduino15/packages/arduino/tools/arm-none-eabi-gcc/4.8.3-2014q1/bin/../lib/gcc/arm-none-eabi/4.8.3/../../../../arm-none-eabi/lib/armv7-m\libc.a(lib_a-impure.o)
 .ARM.attributes
                0x00000c2c       0x2d c:/users/nandi/appdata/roaming/arduino15/packages/arduino/tools/arm-none-eabi-gcc/4.8.3-2014q1/bin/../lib/gcc/arm-none-eabi/4.8.3/../../../../arm-none-eabi/lib/armv7-m\libc.a(lib_a-init.o)
 .ARM.attributes
                0x00000c59       0x2d c:/users/nandi/appdata/roaming/arduino15/packages/arduino/tools/arm-none-eabi-gcc/4.8.3-2014q1/bin/../lib/gcc/arm-none-eabi/4.8.3/../../../../arm-none-eabi/lib/armv7-m\libc.a(lib_a-memset.o)
 .ARM.attributes
                0x00000c86       0x2d c:/users/nandi/appdata/roaming/arduino15/packages/arduino/tools/arm-none-eabi-gcc/4.8.3-2014q1/bin/../lib/gcc/arm-none-eabi/4.8.3/../../../../arm-none-eabi/lib/armv7-m\libc.a(lib_a-rand.o)
 .ARM.attributes
                0x00000cb3       0x2d c:/users/nandi/appdata/roaming/arduino15/packages/arduino/tools/arm-none-eabi-gcc/4.8.3-2014q1/bin/../lib/gcc/arm-none-eabi/4.8.3/../../../../arm-none-eabi/lib/armv7-m\libc.a(lib_a-strlen.o)
 .ARM.attributes
                0x00000ce0       0x2d c:/users/nandi/appdata/roaming/arduino15/packages/arduino/tools/arm-none-eabi-gcc/4.8.3-2014q1/bin/../lib/gcc/arm-none-eabi/4.8.3/../../../../arm-none-eabi/lib/armv7-m\libc.a(lib_a-strncpy.o)
 .ARM.attributes
                0x00000d0d       0x2d c:/users/nandi/appdata/roaming/arduino15/packages/arduino/tools/arm-none-eabi-gcc/4.8.3-2014q1/bin/../lib/gcc/arm-none-eabi/4.8.3/../../../../arm-none-eabi/lib/armv7-m\libc.a(lib_a-__call_atexit.o)
 .ARM.attributes
                0x00000d3a       0x2d c:/users/nandi/appdata/roaming/arduino15/packages/arduino/tools/arm-none-eabi-gcc/4.8.3-2014q1/bin/../lib/gcc/arm-none-eabi/4.8.3/../../../../arm-none-eabi/lib/armv7-m\libc.a(lib_a-atexit.o)
 .ARM.attributes
                0x00000d67       0x2d c:/users/nandi/appdata/roaming/arduino15/packages/arduino/tools/arm-none-eabi-gcc/4.8.3-2014q1/bin/../lib/gcc/arm-none-eabi/4.8.3/../../../../arm-none-eabi/lib/armv7-m\libc.a(lib_a-fini.o)
 .ARM.attributes
                0x00000d94       0x2d c:/users/nandi/appdata/roaming/arduino15/packages/arduino/tools/arm-none-eabi-gcc/4.8.3-2014q1/bin/../lib/gcc/arm-none-eabi/4.8.3/../../../../arm-none-eabi/lib/armv7-m\libc.a(lib_a-__atexit.o)
 .ARM.attributes
                0x00000dc1       0x2d c:/users/nandi/appdata/roaming/arduino15/packages/arduino/tools/arm-none-eabi-gcc/4.8.3-2014q1/bin/../lib/gcc/arm-none-eabi/4.8.3/armv7-m/crtend.o
 .ARM.attributes
                0x00000dee       0x1d c:/users/nandi/appdata/roaming/arduino15/packages/arduino/tools/arm-none-eabi-gcc/4.8.3-2014q1/bin/../lib/gcc/arm-none-eabi/4.8.3/armv7-m/crtn.o
 .ARM.attributes
                0x00000e0b       0x2d c:/users/nandi/appdata/roaming/arduino15/packages/arduino/tools/arm-none-eabi-gcc/4.8.3-2014q1/bin/../lib/gcc/arm-none-eabi/4.8.3/../../../../arm-none-eabi/lib/armv7-m\libnosys.a(_exit.o)

/DISCARD/
 *(.note.GNU-stack)
OUTPUT(C:\Users\Nandi\AppData\Local\V.Micro\Arduino\Builds\sharpmem\Arduino_STM32_mapleMini/sharpmem.ino.elf elf32-littlearm)

.debug_ranges   0x00000000     0x1bf0
 .debug_ranges  0x00000000       0x50 C:\Users\Nandi\AppData\Local\V.Micro\Arduino\Builds\sharpmem\Arduino_STM32_mapleMini\sharpmem.cpp.o
 .debug_ranges  0x00000050      0x338 C:\Users\Nandi\AppData\Local\V.Micro\Arduino\Builds\sharpmem\Arduino_STM32_mapleMini\SPI\SPI.cpp.o
 .debug_ranges  0x00000388      0x2e0 C:\Users\Nandi\AppData\Local\V.Micro\Arduino\Builds\sharpmem\Arduino_STM32_mapleMini\Adafruit-GFX-Library-master\Adafruit_GFX.cpp.o
 .debug_ranges  0x00000668       0x98 C:\Users\Nandi\AppData\Local\V.Micro\Arduino\Builds\sharpmem\Arduino_STM32_mapleMini\SharpMemSTM32.cpp.o
 .debug_ranges  0x00000700       0x18 C:\Users\Nandi\AppData\Local\V.Micro\Arduino\Builds\sharpmem\Arduino_STM32_mapleMini/core.a(dma.c.o)
 .debug_ranges  0x00000718      0x1b8 C:\Users\Nandi\AppData\Local\V.Micro\Arduino\Builds\sharpmem\Arduino_STM32_mapleMini/core.a(dma_f1.c.o)
 .debug_ranges  0x000008d0       0x98 C:\Users\Nandi\AppData\Local\V.Micro\Arduino\Builds\sharpmem\Arduino_STM32_mapleMini/core.a(rcc.c.o)
 .debug_ranges  0x00000968       0xc8 C:\Users\Nandi\AppData\Local\V.Micro\Arduino\Builds\sharpmem\Arduino_STM32_mapleMini/core.a(rcc_f1.c.o)
 .debug_ranges  0x00000a30       0xe8 C:\Users\Nandi\AppData\Local\V.Micro\Arduino\Builds\sharpmem\Arduino_STM32_mapleMini/core.a(spi.c.o)
 .debug_ranges  0x00000b18       0x18 C:\Users\Nandi\AppData\Local\V.Micro\Arduino\Builds\sharpmem\Arduino_STM32_mapleMini/core.a(spi_f1.c.o)
 .debug_ranges  0x00000b30       0x48 C:\Users\Nandi\AppData\Local\V.Micro\Arduino\Builds\sharpmem\Arduino_STM32_mapleMini/core.a(systick.c.o)
 .debug_ranges  0x00000b78       0x98 C:\Users\Nandi\AppData\Local\V.Micro\Arduino\Builds\sharpmem\Arduino_STM32_mapleMini/core.a(timer.c.o)
 .debug_ranges  0x00000c10       0x58 C:\Users\Nandi\AppData\Local\V.Micro\Arduino\Builds\sharpmem\Arduino_STM32_mapleMini/core.a(util.c.o)
 .debug_ranges  0x00000c68       0x10 C:\Users\Nandi\AppData\Local\V.Micro\Arduino\Builds\sharpmem\Arduino_STM32_mapleMini/core.a(cxxabi-compat.cpp.o)
 .debug_ranges  0x00000c78       0x18 C:\Users\Nandi\AppData\Local\V.Micro\Arduino\Builds\sharpmem\Arduino_STM32_mapleMini/core.a(main.cpp.o)
 .debug_ranges  0x00000c90      0x200 C:\Users\Nandi\AppData\Local\V.Micro\Arduino\Builds\sharpmem\Arduino_STM32_mapleMini/core.a(Print.cpp.o)
 .debug_ranges  0x00000e90      0x110 C:\Users\Nandi\AppData\Local\V.Micro\Arduino\Builds\sharpmem\Arduino_STM32_mapleMini/core.a(usb_serial.cpp.o)
 .debug_ranges  0x00000fa0       0x50 C:\Users\Nandi\AppData\Local\V.Micro\Arduino\Builds\sharpmem\Arduino_STM32_mapleMini/core.a(wirish_digital.cpp.o)
 .debug_ranges  0x00000ff0       0x18 C:\Users\Nandi\AppData\Local\V.Micro\Arduino\Builds\sharpmem\Arduino_STM32_mapleMini/core.a(wirish_time.cpp.o)
 .debug_ranges  0x00001008       0x30 C:\Users\Nandi\AppData\Local\V.Micro\Arduino\Builds\sharpmem\Arduino_STM32_mapleMini/core.a(wirish_digital_f1.cpp.o)
 .debug_ranges  0x00001038       0x10 C:\Users\Nandi\AppData\Local\V.Micro\Arduino\Builds\sharpmem\Arduino_STM32_mapleMini/core.a(start_c.c.o)
 .debug_ranges  0x00001048       0x38 C:\Users\Nandi\AppData\Local\V.Micro\Arduino\Builds\sharpmem\Arduino_STM32_mapleMini/core.a(board.cpp.o)
 .debug_ranges  0x00001080      0x160 C:\Users\Nandi\AppData\Local\V.Micro\Arduino\Builds\sharpmem\Arduino_STM32_mapleMini/core.a(boards.cpp.o)
 .debug_ranges  0x000011e0       0x30 C:\Users\Nandi\AppData\Local\V.Micro\Arduino\Builds\sharpmem\Arduino_STM32_mapleMini/core.a(boards_setup.cpp.o)
 .debug_ranges  0x00001210       0x28 C:\Users\Nandi\AppData\Local\V.Micro\Arduino\Builds\sharpmem\Arduino_STM32_mapleMini/core.a(adc.c.o)
 .debug_ranges  0x00001238       0xa0 C:\Users\Nandi\AppData\Local\V.Micro\Arduino\Builds\sharpmem\Arduino_STM32_mapleMini/core.a(adc_f1.c.o)
 .debug_ranges  0x000012d8       0x10 C:\Users\Nandi\AppData\Local\V.Micro\Arduino\Builds\sharpmem\Arduino_STM32_mapleMini/core.a(flash.c.o)
 .debug_ranges  0x000012e8       0x30 C:\Users\Nandi\AppData\Local\V.Micro\Arduino\Builds\sharpmem\Arduino_STM32_mapleMini/core.a(gpio_f1.c.o)
 .debug_ranges  0x00001318       0x18 C:\Users\Nandi\AppData\Local\V.Micro\Arduino\Builds\sharpmem\Arduino_STM32_mapleMini/core.a(iwdg.c.o)
 .debug_ranges  0x00001330       0x40 C:\Users\Nandi\AppData\Local\V.Micro\Arduino\Builds\sharpmem\Arduino_STM32_mapleMini/core.a(nvic.c.o)
 .debug_ranges  0x00001370       0x58 C:\Users\Nandi\AppData\Local\V.Micro\Arduino\Builds\sharpmem\Arduino_STM32_mapleMini/core.a(usart.c.o)
 .debug_ranges  0x000013c8       0x58 C:\Users\Nandi\AppData\Local\V.Micro\Arduino\Builds\sharpmem\Arduino_STM32_mapleMini/core.a(usart_f1.c.o)
 .debug_ranges  0x00001420       0x10 C:\Users\Nandi\AppData\Local\V.Micro\Arduino\Builds\sharpmem\Arduino_STM32_mapleMini/core.a(usart_private.c.o)
 .debug_ranges  0x00001430       0xa0 C:\Users\Nandi\AppData\Local\V.Micro\Arduino\Builds\sharpmem\Arduino_STM32_mapleMini/core.a(usb.c.o)
 .debug_ranges  0x000014d0      0x268 C:\Users\Nandi\AppData\Local\V.Micro\Arduino\Builds\sharpmem\Arduino_STM32_mapleMini/core.a(usb_cdcacm.c.o)
 .debug_ranges  0x00001738       0x90 C:\Users\Nandi\AppData\Local\V.Micro\Arduino\Builds\sharpmem\Arduino_STM32_mapleMini/core.a(usb_reg_map.c.o)
 .debug_ranges  0x000017c8       0xc0 C:\Users\Nandi\AppData\Local\V.Micro\Arduino\Builds\sharpmem\Arduino_STM32_mapleMini/core.a(usb_core.c.o)
 .debug_ranges  0x00001888       0x10 C:\Users\Nandi\AppData\Local\V.Micro\Arduino\Builds\sharpmem\Arduino_STM32_mapleMini/core.a(usb_init.c.o)
 .debug_ranges  0x00001898       0x18 C:\Users\Nandi\AppData\Local\V.Micro\Arduino\Builds\sharpmem\Arduino_STM32_mapleMini/core.a(usb_mem.c.o)
 .debug_ranges  0x000018b0      0x290 C:\Users\Nandi\AppData\Local\V.Micro\Arduino\Builds\sharpmem\Arduino_STM32_mapleMini/core.a(usb_regs.c.o)
 .debug_ranges  0x00001b40       0x88 C:\Users\Nandi\AppData\Local\V.Micro\Arduino\Builds\sharpmem\Arduino_STM32_mapleMini/core.a(HardwareSerial.cpp.o)
 .debug_ranges  0x00001bc8       0x18 C:\Users\Nandi\AppData\Local\V.Micro\Arduino\Builds\sharpmem\Arduino_STM32_mapleMini/core.a(wirish_debug.cpp.o)
 .debug_ranges  0x00001be0       0x10 C:\Users\Nandi\AppData\Local\V.Micro\Arduino\Builds\sharpmem\Arduino_STM32_mapleMini/core.a(gpio.c.o)

.comment        0x00000000       0x70
 .comment       0x00000000       0x70 C:\Users\Nandi\AppData\Local\V.Micro\Arduino\Builds\sharpmem\Arduino_STM32_mapleMini\sharpmem.cpp.o
                                 0x71 (size before relaxing)
 .comment       0x00000000       0x71 C:\Users\Nandi\AppData\Local\V.Micro\Arduino\Builds\sharpmem\Arduino_STM32_mapleMini\SPI\SPI.cpp.o
 .comment       0x00000000       0x71 C:\Users\Nandi\AppData\Local\V.Micro\Arduino\Builds\sharpmem\Arduino_STM32_mapleMini\Adafruit-GFX-Library-master\glcdfont.c.o
 .comment       0x00000000       0x71 C:\Users\Nandi\AppData\Local\V.Micro\Arduino\Builds\sharpmem\Arduino_STM32_mapleMini\Adafruit-GFX-Library-master\Adafruit_GFX.cpp.o
 .comment       0x00000000       0x71 C:\Users\Nandi\AppData\Local\V.Micro\Arduino\Builds\sharpmem\Arduino_STM32_mapleMini\SharpMemSTM32.cpp.o
 .comment       0x00000000       0x71 C:\Users\Nandi\AppData\Local\V.Micro\Arduino\Builds\sharpmem\Arduino_STM32_mapleMini/core.a(dma.c.o)
 .comment       0x00000000       0x71 C:\Users\Nandi\AppData\Local\V.Micro\Arduino\Builds\sharpmem\Arduino_STM32_mapleMini/core.a(dma_f1.c.o)
 .comment       0x00000000       0x71 C:\Users\Nandi\AppData\Local\V.Micro\Arduino\Builds\sharpmem\Arduino_STM32_mapleMini/core.a(rcc.c.o)
 .comment       0x00000000       0x71 C:\Users\Nandi\AppData\Local\V.Micro\Arduino\Builds\sharpmem\Arduino_STM32_mapleMini/core.a(rcc_f1.c.o)
 .comment       0x00000000       0x71 C:\Users\Nandi\AppData\Local\V.Micro\Arduino\Builds\sharpmem\Arduino_STM32_mapleMini/core.a(spi.c.o)
 .comment       0x00000000       0x71 C:\Users\Nandi\AppData\Local\V.Micro\Arduino\Builds\sharpmem\Arduino_STM32_mapleMini/core.a(spi_f1.c.o)
 .comment       0x00000000       0x71 C:\Users\Nandi\AppData\Local\V.Micro\Arduino\Builds\sharpmem\Arduino_STM32_mapleMini/core.a(systick.c.o)
 .comment       0x00000000       0x71 C:\Users\Nandi\AppData\Local\V.Micro\Arduino\Builds\sharpmem\Arduino_STM32_mapleMini/core.a(timer.c.o)
 .comment       0x00000000       0x71 C:\Users\Nandi\AppData\Local\V.Micro\Arduino\Builds\sharpmem\Arduino_STM32_mapleMini/core.a(util.c.o)
 .comment       0x00000000       0x71 C:\Users\Nandi\AppData\Local\V.Micro\Arduino\Builds\sharpmem\Arduino_STM32_mapleMini/core.a(cxxabi-compat.cpp.o)
 .comment       0x00000000       0x71 C:\Users\Nandi\AppData\Local\V.Micro\Arduino\Builds\sharpmem\Arduino_STM32_mapleMini/core.a(main.cpp.o)
 .comment       0x00000000       0x71 C:\Users\Nandi\AppData\Local\V.Micro\Arduino\Builds\sharpmem\Arduino_STM32_mapleMini/core.a(Print.cpp.o)
 .comment       0x00000000       0x71 C:\Users\Nandi\AppData\Local\V.Micro\Arduino\Builds\sharpmem\Arduino_STM32_mapleMini/core.a(usb_serial.cpp.o)
 .comment       0x00000000       0x71 C:\Users\Nandi\AppData\Local\V.Micro\Arduino\Builds\sharpmem\Arduino_STM32_mapleMini/core.a(wirish_digital.cpp.o)
 .comment       0x00000000       0x71 C:\Users\Nandi\AppData\Local\V.Micro\Arduino\Builds\sharpmem\Arduino_STM32_mapleMini/core.a(wirish_time.cpp.o)
 .comment       0x00000000       0x71 C:\Users\Nandi\AppData\Local\V.Micro\Arduino\Builds\sharpmem\Arduino_STM32_mapleMini/core.a(wirish_digital_f1.cpp.o)
 .comment       0x00000000       0x71 C:\Users\Nandi\AppData\Local\V.Micro\Arduino\Builds\sharpmem\Arduino_STM32_mapleMini/core.a(start_c.c.o)
 .comment       0x00000000       0x71 C:\Users\Nandi\AppData\Local\V.Micro\Arduino\Builds\sharpmem\Arduino_STM32_mapleMini/core.a(board.cpp.o)
 .comment       0x00000000       0x71 C:\Users\Nandi\AppData\Local\V.Micro\Arduino\Builds\sharpmem\Arduino_STM32_mapleMini/core.a(boards.cpp.o)
 .comment       0x00000000       0x71 C:\Users\Nandi\AppData\Local\V.Micro\Arduino\Builds\sharpmem\Arduino_STM32_mapleMini/core.a(boards_setup.cpp.o)
 .comment       0x00000000       0x71 C:\Users\Nandi\AppData\Local\V.Micro\Arduino\Builds\sharpmem\Arduino_STM32_mapleMini/core.a(adc.c.o)
 .comment       0x00000000       0x71 C:\Users\Nandi\AppData\Local\V.Micro\Arduino\Builds\sharpmem\Arduino_STM32_mapleMini/core.a(adc_f1.c.o)
 .comment       0x00000000       0x71 C:\Users\Nandi\AppData\Local\V.Micro\Arduino\Builds\sharpmem\Arduino_STM32_mapleMini/core.a(flash.c.o)
 .comment       0x00000000       0x71 C:\Users\Nandi\AppData\Local\V.Micro\Arduino\Builds\sharpmem\Arduino_STM32_mapleMini/core.a(gpio_f1.c.o)
 .comment       0x00000000       0x71 C:\Users\Nandi\AppData\Local\V.Micro\Arduino\Builds\sharpmem\Arduino_STM32_mapleMini/core.a(iwdg.c.o)
 .comment       0x00000000       0x71 C:\Users\Nandi\AppData\Local\V.Micro\Arduino\Builds\sharpmem\Arduino_STM32_mapleMini/core.a(nvic.c.o)
 .comment       0x00000000       0x71 C:\Users\Nandi\AppData\Local\V.Micro\Arduino\Builds\sharpmem\Arduino_STM32_mapleMini/core.a(usart.c.o)
 .comment       0x00000000       0x71 C:\Users\Nandi\AppData\Local\V.Micro\Arduino\Builds\sharpmem\Arduino_STM32_mapleMini/core.a(usart_f1.c.o)
 .comment       0x00000000       0x71 C:\Users\Nandi\AppData\Local\V.Micro\Arduino\Builds\sharpmem\Arduino_STM32_mapleMini/core.a(usart_private.c.o)
 .comment       0x00000000       0x71 C:\Users\Nandi\AppData\Local\V.Micro\Arduino\Builds\sharpmem\Arduino_STM32_mapleMini/core.a(usb.c.o)
 .comment       0x00000000       0x71 C:\Users\Nandi\AppData\Local\V.Micro\Arduino\Builds\sharpmem\Arduino_STM32_mapleMini/core.a(usb_cdcacm.c.o)
 .comment       0x00000000       0x71 C:\Users\Nandi\AppData\Local\V.Micro\Arduino\Builds\sharpmem\Arduino_STM32_mapleMini/core.a(usb_reg_map.c.o)
 .comment       0x00000000       0x71 C:\Users\Nandi\AppData\Local\V.Micro\Arduino\Builds\sharpmem\Arduino_STM32_mapleMini/core.a(usb_core.c.o)
 .comment       0x00000000       0x71 C:\Users\Nandi\AppData\Local\V.Micro\Arduino\Builds\sharpmem\Arduino_STM32_mapleMini/core.a(usb_init.c.o)
 .comment       0x00000000       0x71 C:\Users\Nandi\AppData\Local\V.Micro\Arduino\Builds\sharpmem\Arduino_STM32_mapleMini/core.a(usb_mem.c.o)
 .comment       0x00000000       0x71 C:\Users\Nandi\AppData\Local\V.Micro\Arduino\Builds\sharpmem\Arduino_STM32_mapleMini/core.a(usb_regs.c.o)
 .comment       0x00000000       0x71 C:\Users\Nandi\AppData\Local\V.Micro\Arduino\Builds\sharpmem\Arduino_STM32_mapleMini/core.a(HardwareSerial.cpp.o)
 .comment       0x00000000       0x71 C:\Users\Nandi\AppData\Local\V.Micro\Arduino\Builds\sharpmem\Arduino_STM32_mapleMini/core.a(wirish_debug.cpp.o)
 .comment       0x00000000       0x71 C:\Users\Nandi\AppData\Local\V.Micro\Arduino\Builds\sharpmem\Arduino_STM32_mapleMini/core.a(gpio.c.o)

Cross Reference Table

Symbol                                            File
ADC1                                              C:\Users\Nandi\AppData\Local\V.Micro\Arduino\Builds\sharpmem\Arduino_STM32_mapleMini/core.a(adc_f1.c.o)
ADC2                                              C:\Users\Nandi\AppData\Local\V.Micro\Arduino\Builds\sharpmem\Arduino_STM32_mapleMini/core.a(adc_f1.c.o)
Adafruit_GFX::Adafruit_GFX(short, short)          C:\Users\Nandi\AppData\Local\V.Micro\Arduino\Builds\sharpmem\Arduino_STM32_mapleMini\Adafruit-GFX-Library-master\Adafruit_GFX.cpp.o
Adafruit_GFX::Adafruit_GFX(short, short)          C:\Users\Nandi\AppData\Local\V.Micro\Arduino\Builds\sharpmem\Arduino_STM32_mapleMini\Adafruit-GFX-Library-master\Adafruit_GFX.cpp.o
                                                  C:\Users\Nandi\AppData\Local\V.Micro\Arduino\Builds\sharpmem\Arduino_STM32_mapleMini\SharpMemSTM32.cpp.o
Adafruit_GFX::cp437(bool)                         C:\Users\Nandi\AppData\Local\V.Micro\Arduino\Builds\sharpmem\Arduino_STM32_mapleMini\Adafruit-GFX-Library-master\Adafruit_GFX.cpp.o
Adafruit_GFX::drawBitmap(short, short, unsigned char const*, short, short, unsigned short) C:\Users\Nandi\AppData\Local\V.Micro\Arduino\Builds\sharpmem\Arduino_STM32_mapleMini\Adafruit-GFX-Library-master\Adafruit_GFX.cpp.o
Adafruit_GFX::drawBitmap(short, short, unsigned char const*, short, short, unsigned short, unsigned short) C:\Users\Nandi\AppData\Local\V.Micro\Arduino\Builds\sharpmem\Arduino_STM32_mapleMini\Adafruit-GFX-Library-master\Adafruit_GFX.cpp.o
Adafruit_GFX::drawChar(short, short, unsigned char, unsigned short, unsigned short, unsigned char) C:\Users\Nandi\AppData\Local\V.Micro\Arduino\Builds\sharpmem\Arduino_STM32_mapleMini\Adafruit-GFX-Library-master\Adafruit_GFX.cpp.o
Adafruit_GFX::drawCircle(short, short, short, unsigned short) C:\Users\Nandi\AppData\Local\V.Micro\Arduino\Builds\sharpmem\Arduino_STM32_mapleMini\Adafruit-GFX-Library-master\Adafruit_GFX.cpp.o
Adafruit_GFX::drawCircleHelper(short, short, short, unsigned char, unsigned short) C:\Users\Nandi\AppData\Local\V.Micro\Arduino\Builds\sharpmem\Arduino_STM32_mapleMini\Adafruit-GFX-Library-master\Adafruit_GFX.cpp.o
Adafruit_GFX::drawFastHLine(short, short, short, unsigned short) C:\Users\Nandi\AppData\Local\V.Micro\Arduino\Builds\sharpmem\Arduino_STM32_mapleMini\Adafruit-GFX-Library-master\Adafruit_GFX.cpp.o
                                                  C:\Users\Nandi\AppData\Local\V.Micro\Arduino\Builds\sharpmem\Arduino_STM32_mapleMini\SharpMemSTM32.cpp.o
Adafruit_GFX::drawFastVLine(short, short, short, unsigned short) C:\Users\Nandi\AppData\Local\V.Micro\Arduino\Builds\sharpmem\Arduino_STM32_mapleMini\Adafruit-GFX-Library-master\Adafruit_GFX.cpp.o
                                                  C:\Users\Nandi\AppData\Local\V.Micro\Arduino\Builds\sharpmem\Arduino_STM32_mapleMini\SharpMemSTM32.cpp.o
Adafruit_GFX::drawLine(short, short, short, short, unsigned short) C:\Users\Nandi\AppData\Local\V.Micro\Arduino\Builds\sharpmem\Arduino_STM32_mapleMini\Adafruit-GFX-Library-master\Adafruit_GFX.cpp.o
                                                  C:\Users\Nandi\AppData\Local\V.Micro\Arduino\Builds\sharpmem\Arduino_STM32_mapleMini\SharpMemSTM32.cpp.o
Adafruit_GFX::drawRect(short, short, short, short, unsigned short) C:\Users\Nandi\AppData\Local\V.Micro\Arduino\Builds\sharpmem\Arduino_STM32_mapleMini\Adafruit-GFX-Library-master\Adafruit_GFX.cpp.o
                                                  C:\Users\Nandi\AppData\Local\V.Micro\Arduino\Builds\sharpmem\Arduino_STM32_mapleMini\SharpMemSTM32.cpp.o
Adafruit_GFX::drawRoundRect(short, short, short, short, short, unsigned short) C:\Users\Nandi\AppData\Local\V.Micro\Arduino\Builds\sharpmem\Arduino_STM32_mapleMini\Adafruit-GFX-Library-master\Adafruit_GFX.cpp.o
Adafruit_GFX::drawTriangle(short, short, short, short, short, short, unsigned short) C:\Users\Nandi\AppData\Local\V.Micro\Arduino\Builds\sharpmem\Arduino_STM32_mapleMini\Adafruit-GFX-Library-master\Adafruit_GFX.cpp.o
Adafruit_GFX::drawXBitmap(short, short, unsigned char const*, short, short, unsigned short) C:\Users\Nandi\AppData\Local\V.Micro\Arduino\Builds\sharpmem\Arduino_STM32_mapleMini\Adafruit-GFX-Library-master\Adafruit_GFX.cpp.o
Adafruit_GFX::fillCircle(short, short, short, unsigned short) C:\Users\Nandi\AppData\Local\V.Micro\Arduino\Builds\sharpmem\Arduino_STM32_mapleMini\Adafruit-GFX-Library-master\Adafruit_GFX.cpp.o
                                                  C:\Users\Nandi\AppData\Local\V.Micro\Arduino\Builds\sharpmem\Arduino_STM32_mapleMini\sharpmem.cpp.o
Adafruit_GFX::fillCircleHelper(short, short, short, unsigned char, short, unsigned short) C:\Users\Nandi\AppData\Local\V.Micro\Arduino\Builds\sharpmem\Arduino_STM32_mapleMini\Adafruit-GFX-Library-master\Adafruit_GFX.cpp.o
Adafruit_GFX::fillRect(short, short, short, short, unsigned short) C:\Users\Nandi\AppData\Local\V.Micro\Arduino\Builds\sharpmem\Arduino_STM32_mapleMini\Adafruit-GFX-Library-master\Adafruit_GFX.cpp.o
                                                  C:\Users\Nandi\AppData\Local\V.Micro\Arduino\Builds\sharpmem\Arduino_STM32_mapleMini\SharpMemSTM32.cpp.o
Adafruit_GFX::fillRoundRect(short, short, short, short, short, unsigned short) C:\Users\Nandi\AppData\Local\V.Micro\Arduino\Builds\sharpmem\Arduino_STM32_mapleMini\Adafruit-GFX-Library-master\Adafruit_GFX.cpp.o
Adafruit_GFX::fillScreen(unsigned short)          C:\Users\Nandi\AppData\Local\V.Micro\Arduino\Builds\sharpmem\Arduino_STM32_mapleMini\Adafruit-GFX-Library-master\Adafruit_GFX.cpp.o
                                                  C:\Users\Nandi\AppData\Local\V.Micro\Arduino\Builds\sharpmem\Arduino_STM32_mapleMini\SharpMemSTM32.cpp.o
Adafruit_GFX::fillTriangle(short, short, short, short, short, short, unsigned short) C:\Users\Nandi\AppData\Local\V.Micro\Arduino\Builds\sharpmem\Arduino_STM32_mapleMini\Adafruit-GFX-Library-master\Adafruit_GFX.cpp.o
Adafruit_GFX::getCursorX() const                  C:\Users\Nandi\AppData\Local\V.Micro\Arduino\Builds\sharpmem\Arduino_STM32_mapleMini\Adafruit-GFX-Library-master\Adafruit_GFX.cpp.o
Adafruit_GFX::getCursorY() const                  C:\Users\Nandi\AppData\Local\V.Micro\Arduino\Builds\sharpmem\Arduino_STM32_mapleMini\Adafruit-GFX-Library-master\Adafruit_GFX.cpp.o
Adafruit_GFX::getRotation() const                 C:\Users\Nandi\AppData\Local\V.Micro\Arduino\Builds\sharpmem\Arduino_STM32_mapleMini\Adafruit-GFX-Library-master\Adafruit_GFX.cpp.o
Adafruit_GFX::height() const                      C:\Users\Nandi\AppData\Local\V.Micro\Arduino\Builds\sharpmem\Arduino_STM32_mapleMini\Adafruit-GFX-Library-master\Adafruit_GFX.cpp.o
Adafruit_GFX::invertDisplay(bool)                 C:\Users\Nandi\AppData\Local\V.Micro\Arduino\Builds\sharpmem\Arduino_STM32_mapleMini\Adafruit-GFX-Library-master\Adafruit_GFX.cpp.o
                                                  C:\Users\Nandi\AppData\Local\V.Micro\Arduino\Builds\sharpmem\Arduino_STM32_mapleMini\SharpMemSTM32.cpp.o
Adafruit_GFX::setCursor(short, short)             C:\Users\Nandi\AppData\Local\V.Micro\Arduino\Builds\sharpmem\Arduino_STM32_mapleMini\Adafruit-GFX-Library-master\Adafruit_GFX.cpp.o
                                                  C:\Users\Nandi\AppData\Local\V.Micro\Arduino\Builds\sharpmem\Arduino_STM32_mapleMini\sharpmem.cpp.o
Adafruit_GFX::setRotation(unsigned char)          C:\Users\Nandi\AppData\Local\V.Micro\Arduino\Builds\sharpmem\Arduino_STM32_mapleMini\Adafruit-GFX-Library-master\Adafruit_GFX.cpp.o
Adafruit_GFX::setTextColor(unsigned short)        C:\Users\Nandi\AppData\Local\V.Micro\Arduino\Builds\sharpmem\Arduino_STM32_mapleMini\Adafruit-GFX-Library-master\Adafruit_GFX.cpp.o
                                                  C:\Users\Nandi\AppData\Local\V.Micro\Arduino\Builds\sharpmem\Arduino_STM32_mapleMini\sharpmem.cpp.o
Adafruit_GFX::setTextColor(unsigned short, unsigned short) C:\Users\Nandi\AppData\Local\V.Micro\Arduino\Builds\sharpmem\Arduino_STM32_mapleMini\Adafruit-GFX-Library-master\Adafruit_GFX.cpp.o
Adafruit_GFX::setTextSize(unsigned char)          C:\Users\Nandi\AppData\Local\V.Micro\Arduino\Builds\sharpmem\Arduino_STM32_mapleMini\Adafruit-GFX-Library-master\Adafruit_GFX.cpp.o
                                                  C:\Users\Nandi\AppData\Local\V.Micro\Arduino\Builds\sharpmem\Arduino_STM32_mapleMini\sharpmem.cpp.o
Adafruit_GFX::setTextWrap(bool)                   C:\Users\Nandi\AppData\Local\V.Micro\Arduino\Builds\sharpmem\Arduino_STM32_mapleMini\Adafruit-GFX-Library-master\Adafruit_GFX.cpp.o
Adafruit_GFX::width() const                       C:\Users\Nandi\AppData\Local\V.Micro\Arduino\Builds\sharpmem\Arduino_STM32_mapleMini\Adafruit-GFX-Library-master\Adafruit_GFX.cpp.o
Adafruit_GFX::write(unsigned char)                C:\Users\Nandi\AppData\Local\V.Micro\Arduino\Builds\sharpmem\Arduino_STM32_mapleMini\Adafruit-GFX-Library-master\Adafruit_GFX.cpp.o
                                                  C:\Users\Nandi\AppData\Local\V.Micro\Arduino\Builds\sharpmem\Arduino_STM32_mapleMini\SharpMemSTM32.cpp.o
Adafruit_GFX_Button::Adafruit_GFX_Button()        C:\Users\Nandi\AppData\Local\V.Micro\Arduino\Builds\sharpmem\Arduino_STM32_mapleMini\Adafruit-GFX-Library-master\Adafruit_GFX.cpp.o
Adafruit_GFX_Button::Adafruit_GFX_Button()        C:\Users\Nandi\AppData\Local\V.Micro\Arduino\Builds\sharpmem\Arduino_STM32_mapleMini\Adafruit-GFX-Library-master\Adafruit_GFX.cpp.o
Adafruit_GFX_Button::contains(short, short)       C:\Users\Nandi\AppData\Local\V.Micro\Arduino\Builds\sharpmem\Arduino_STM32_mapleMini\Adafruit-GFX-Library-master\Adafruit_GFX.cpp.o
Adafruit_GFX_Button::drawButton(bool)             C:\Users\Nandi\AppData\Local\V.Micro\Arduino\Builds\sharpmem\Arduino_STM32_mapleMini\Adafruit-GFX-Library-master\Adafruit_GFX.cpp.o
Adafruit_GFX_Button::initButton(Adafruit_GFX*, short, short, unsigned char, unsigned char, unsigned short, unsigned short, unsigned short, char*, unsigned char) C:\Users\Nandi\AppData\Local\V.Micro\Arduino\Builds\sharpmem\Arduino_STM32_mapleMini\Adafruit-GFX-Library-master\Adafruit_GFX.cpp.o
Adafruit_GFX_Button::isPressed()                  C:\Users\Nandi\AppData\Local\V.Micro\Arduino\Builds\sharpmem\Arduino_STM32_mapleMini\Adafruit-GFX-Library-master\Adafruit_GFX.cpp.o
Adafruit_GFX_Button::justPressed()                C:\Users\Nandi\AppData\Local\V.Micro\Arduino\Builds\sharpmem\Arduino_STM32_mapleMini\Adafruit-GFX-Library-master\Adafruit_GFX.cpp.o
Adafruit_GFX_Button::justReleased()               C:\Users\Nandi\AppData\Local\V.Micro\Arduino\Builds\sharpmem\Arduino_STM32_mapleMini\Adafruit-GFX-Library-master\Adafruit_GFX.cpp.o
Adafruit_GFX_Button::press(bool)                  C:\Users\Nandi\AppData\Local\V.Micro\Arduino\Builds\sharpmem\Arduino_STM32_mapleMini\Adafruit-GFX-Library-master\Adafruit_GFX.cpp.o
ByteSwap                                          C:\Users\Nandi\AppData\Local\V.Micro\Arduino\Builds\sharpmem\Arduino_STM32_mapleMini/core.a(usb_regs.c.o)
                                                  C:\Users\Nandi\AppData\Local\V.Micro\Arduino\Builds\sharpmem\Arduino_STM32_mapleMini/core.a(usb_core.c.o)
ClearDTOG_RX                                      C:\Users\Nandi\AppData\Local\V.Micro\Arduino\Builds\sharpmem\Arduino_STM32_mapleMini/core.a(usb_regs.c.o)
                                                  C:\Users\Nandi\AppData\Local\V.Micro\Arduino\Builds\sharpmem\Arduino_STM32_mapleMini/core.a(usb_core.c.o)
ClearDTOG_TX                                      C:\Users\Nandi\AppData\Local\V.Micro\Arduino\Builds\sharpmem\Arduino_STM32_mapleMini/core.a(usb_regs.c.o)
                                                  C:\Users\Nandi\AppData\Local\V.Micro\Arduino\Builds\sharpmem\Arduino_STM32_mapleMini/core.a(usb_core.c.o)
ClearEPDoubleBuff                                 C:\Users\Nandi\AppData\Local\V.Micro\Arduino\Builds\sharpmem\Arduino_STM32_mapleMini/core.a(usb_regs.c.o)
ClearEP_CTR_RX                                    C:\Users\Nandi\AppData\Local\V.Micro\Arduino\Builds\sharpmem\Arduino_STM32_mapleMini/core.a(usb_regs.c.o)
ClearEP_CTR_TX                                    C:\Users\Nandi\AppData\Local\V.Micro\Arduino\Builds\sharpmem\Arduino_STM32_mapleMini/core.a(usb_regs.c.o)
ClearEP_KIND                                      C:\Users\Nandi\AppData\Local\V.Micro\Arduino\Builds\sharpmem\Arduino_STM32_mapleMini/core.a(usb_regs.c.o)
Clear_Status_Out                                  C:\Users\Nandi\AppData\Local\V.Micro\Arduino\Builds\sharpmem\Arduino_STM32_mapleMini/core.a(usb_regs.c.o)
DMA1                                              C:\Users\Nandi\AppData\Local\V.Micro\Arduino\Builds\sharpmem\Arduino_STM32_mapleMini/core.a(dma_f1.c.o)
                                                  C:\Users\Nandi\AppData\Local\V.Micro\Arduino\Builds\sharpmem\Arduino_STM32_mapleMini\SPI\SPI.cpp.o
Data_Mul_MaxPacketSize                            C:\Users\Nandi\AppData\Local\V.Micro\Arduino\Builds\sharpmem\Arduino_STM32_mapleMini/core.a(usb_core.c.o)
Device_Info                                       C:\Users\Nandi\AppData\Local\V.Micro\Arduino\Builds\sharpmem\Arduino_STM32_mapleMini/core.a(usb_init.c.o)
                                                  C:\Users\Nandi\AppData\Local\V.Micro\Arduino\Builds\sharpmem\Arduino_STM32_mapleMini/core.a(usb.c.o)
Device_Property                                   C:\Users\Nandi\AppData\Local\V.Micro\Arduino\Builds\sharpmem\Arduino_STM32_mapleMini/core.a(usb_cdcacm.c.o)
                                                  C:\Users\Nandi\AppData\Local\V.Micro\Arduino\Builds\sharpmem\Arduino_STM32_mapleMini/core.a(usb_init.c.o)
                                                  C:\Users\Nandi\AppData\Local\V.Micro\Arduino\Builds\sharpmem\Arduino_STM32_mapleMini/core.a(usb_core.c.o)
                                                  C:\Users\Nandi\AppData\Local\V.Micro\Arduino\Builds\sharpmem\Arduino_STM32_mapleMini/core.a(usb.c.o)
Device_Table                                      C:\Users\Nandi\AppData\Local\V.Micro\Arduino\Builds\sharpmem\Arduino_STM32_mapleMini/core.a(usb_cdcacm.c.o)
                                                  C:\Users\Nandi\AppData\Local\V.Micro\Arduino\Builds\sharpmem\Arduino_STM32_mapleMini/core.a(usb_core.c.o)
EPindex                                           C:\Users\Nandi\AppData\Local\V.Micro\Arduino\Builds\sharpmem\Arduino_STM32_mapleMini/core.a(usb_init.c.o)
FreeUserBuffer                                    C:\Users\Nandi\AppData\Local\V.Micro\Arduino\Builds\sharpmem\Arduino_STM32_mapleMini/core.a(usb_regs.c.o)
GPIOA                                             C:\Users\Nandi\AppData\Local\V.Micro\Arduino\Builds\sharpmem\Arduino_STM32_mapleMini/core.a(gpio_f1.c.o)
GPIOB                                             C:\Users\Nandi\AppData\Local\V.Micro\Arduino\Builds\sharpmem\Arduino_STM32_mapleMini/core.a(gpio_f1.c.o)
                                                  C:\Users\Nandi\AppData\Local\V.Micro\Arduino\Builds\sharpmem\Arduino_STM32_mapleMini/core.a(usb_serial.cpp.o)
                                                  C:\Users\Nandi\AppData\Local\V.Micro\Arduino\Builds\sharpmem\Arduino_STM32_mapleMini/core.a(util.c.o)
GPIOC                                             C:\Users\Nandi\AppData\Local\V.Micro\Arduino\Builds\sharpmem\Arduino_STM32_mapleMini/core.a(gpio_f1.c.o)
GPIOD                                             C:\Users\Nandi\AppData\Local\V.Micro\Arduino\Builds\sharpmem\Arduino_STM32_mapleMini/core.a(gpio_f1.c.o)
GetBTABLE                                         C:\Users\Nandi\AppData\Local\V.Micro\Arduino\Builds\sharpmem\Arduino_STM32_mapleMini/core.a(usb_regs.c.o)
GetCNTR                                           C:\Users\Nandi\AppData\Local\V.Micro\Arduino\Builds\sharpmem\Arduino_STM32_mapleMini/core.a(usb_regs.c.o)
GetDADDR                                          C:\Users\Nandi\AppData\Local\V.Micro\Arduino\Builds\sharpmem\Arduino_STM32_mapleMini/core.a(usb_regs.c.o)
GetENDPOINT                                       C:\Users\Nandi\AppData\Local\V.Micro\Arduino\Builds\sharpmem\Arduino_STM32_mapleMini/core.a(usb_regs.c.o)
GetEPAddress                                      C:\Users\Nandi\AppData\Local\V.Micro\Arduino\Builds\sharpmem\Arduino_STM32_mapleMini/core.a(usb_regs.c.o)
GetEPDblBuf0Addr                                  C:\Users\Nandi\AppData\Local\V.Micro\Arduino\Builds\sharpmem\Arduino_STM32_mapleMini/core.a(usb_regs.c.o)
GetEPDblBuf0Count                                 C:\Users\Nandi\AppData\Local\V.Micro\Arduino\Builds\sharpmem\Arduino_STM32_mapleMini/core.a(usb_regs.c.o)
GetEPDblBuf1Addr                                  C:\Users\Nandi\AppData\Local\V.Micro\Arduino\Builds\sharpmem\Arduino_STM32_mapleMini/core.a(usb_regs.c.o)
GetEPDblBuf1Count                                 C:\Users\Nandi\AppData\Local\V.Micro\Arduino\Builds\sharpmem\Arduino_STM32_mapleMini/core.a(usb_regs.c.o)
GetEPDblBufDir                                    C:\Users\Nandi\AppData\Local\V.Micro\Arduino\Builds\sharpmem\Arduino_STM32_mapleMini/core.a(usb_regs.c.o)
GetEPRxAddr                                       C:\Users\Nandi\AppData\Local\V.Micro\Arduino\Builds\sharpmem\Arduino_STM32_mapleMini/core.a(usb_regs.c.o)
                                                  C:\Users\Nandi\AppData\Local\V.Micro\Arduino\Builds\sharpmem\Arduino_STM32_mapleMini/core.a(usb_core.c.o)
GetEPRxCount                                      C:\Users\Nandi\AppData\Local\V.Micro\Arduino\Builds\sharpmem\Arduino_STM32_mapleMini/core.a(usb_regs.c.o)
GetEPRxStatus                                     C:\Users\Nandi\AppData\Local\V.Micro\Arduino\Builds\sharpmem\Arduino_STM32_mapleMini/core.a(usb_regs.c.o)
GetEPTxAddr                                       C:\Users\Nandi\AppData\Local\V.Micro\Arduino\Builds\sharpmem\Arduino_STM32_mapleMini/core.a(usb_regs.c.o)
                                                  C:\Users\Nandi\AppData\Local\V.Micro\Arduino\Builds\sharpmem\Arduino_STM32_mapleMini/core.a(usb_core.c.o)
GetEPTxCount                                      C:\Users\Nandi\AppData\Local\V.Micro\Arduino\Builds\sharpmem\Arduino_STM32_mapleMini/core.a(usb_regs.c.o)
GetEPTxStatus                                     C:\Users\Nandi\AppData\Local\V.Micro\Arduino\Builds\sharpmem\Arduino_STM32_mapleMini/core.a(usb_regs.c.o)
GetEPType                                         C:\Users\Nandi\AppData\Local\V.Micro\Arduino\Builds\sharpmem\Arduino_STM32_mapleMini/core.a(usb_regs.c.o)
GetFNR                                            C:\Users\Nandi\AppData\Local\V.Micro\Arduino\Builds\sharpmem\Arduino_STM32_mapleMini/core.a(usb_regs.c.o)
GetISTR                                           C:\Users\Nandi\AppData\Local\V.Micro\Arduino\Builds\sharpmem\Arduino_STM32_mapleMini/core.a(usb_regs.c.o)
GetRxStallStatus                                  C:\Users\Nandi\AppData\Local\V.Micro\Arduino\Builds\sharpmem\Arduino_STM32_mapleMini/core.a(usb_regs.c.o)
GetTxStallStatus                                  C:\Users\Nandi\AppData\Local\V.Micro\Arduino\Builds\sharpmem\Arduino_STM32_mapleMini/core.a(usb_regs.c.o)
HardwareSerial::HardwareSerial(usart_dev*, unsigned char, unsigned char) C:\Users\Nandi\AppData\Local\V.Micro\Arduino\Builds\sharpmem\Arduino_STM32_mapleMini/core.a(HardwareSerial.cpp.o)
                                                  C:\Users\Nandi\AppData\Local\V.Micro\Arduino\Builds\sharpmem\Arduino_STM32_mapleMini/core.a(board.cpp.o)
HardwareSerial::HardwareSerial(usart_dev*, unsigned char, unsigned char) C:\Users\Nandi\AppData\Local\V.Micro\Arduino\Builds\sharpmem\Arduino_STM32_mapleMini/core.a(HardwareSerial.cpp.o)
HardwareSerial::available()                       C:\Users\Nandi\AppData\Local\V.Micro\Arduino\Builds\sharpmem\Arduino_STM32_mapleMini/core.a(HardwareSerial.cpp.o)
HardwareSerial::availableForWrite()               C:\Users\Nandi\AppData\Local\V.Micro\Arduino\Builds\sharpmem\Arduino_STM32_mapleMini/core.a(HardwareSerial.cpp.o)
HardwareSerial::begin(unsigned long)              C:\Users\Nandi\AppData\Local\V.Micro\Arduino\Builds\sharpmem\Arduino_STM32_mapleMini/core.a(HardwareSerial.cpp.o)
HardwareSerial::begin(unsigned long, unsigned char) C:\Users\Nandi\AppData\Local\V.Micro\Arduino\Builds\sharpmem\Arduino_STM32_mapleMini/core.a(HardwareSerial.cpp.o)
HardwareSerial::end()                             C:\Users\Nandi\AppData\Local\V.Micro\Arduino\Builds\sharpmem\Arduino_STM32_mapleMini/core.a(HardwareSerial.cpp.o)
HardwareSerial::flush()                           C:\Users\Nandi\AppData\Local\V.Micro\Arduino\Builds\sharpmem\Arduino_STM32_mapleMini/core.a(HardwareSerial.cpp.o)
HardwareSerial::peek()                            C:\Users\Nandi\AppData\Local\V.Micro\Arduino\Builds\sharpmem\Arduino_STM32_mapleMini/core.a(HardwareSerial.cpp.o)
HardwareSerial::read()                            C:\Users\Nandi\AppData\Local\V.Micro\Arduino\Builds\sharpmem\Arduino_STM32_mapleMini/core.a(HardwareSerial.cpp.o)
HardwareSerial::write(unsigned char)              C:\Users\Nandi\AppData\Local\V.Micro\Arduino\Builds\sharpmem\Arduino_STM32_mapleMini/core.a(HardwareSerial.cpp.o)
In0_Process                                       C:\Users\Nandi\AppData\Local\V.Micro\Arduino\Builds\sharpmem\Arduino_STM32_mapleMini/core.a(usb_core.c.o)
                                                  C:\Users\Nandi\AppData\Local\V.Micro\Arduino\Builds\sharpmem\Arduino_STM32_mapleMini/core.a(usb.c.o)
NOP_Process                                       C:\Users\Nandi\AppData\Local\V.Micro\Arduino\Builds\sharpmem\Arduino_STM32_mapleMini/core.a(usb_core.c.o)
                                                  C:\Users\Nandi\AppData\Local\V.Micro\Arduino\Builds\sharpmem\Arduino_STM32_mapleMini/core.a(usb_cdcacm.c.o)
Out0_Process                                      C:\Users\Nandi\AppData\Local\V.Micro\Arduino\Builds\sharpmem\Arduino_STM32_mapleMini/core.a(usb_core.c.o)
                                                  C:\Users\Nandi\AppData\Local\V.Micro\Arduino\Builds\sharpmem\Arduino_STM32_mapleMini/core.a(usb.c.o)
PIN_MAP                                           C:\Users\Nandi\AppData\Local\V.Micro\Arduino\Builds\sharpmem\Arduino_STM32_mapleMini/core.a(board.cpp.o)
                                                  C:\Users\Nandi\AppData\Local\V.Micro\Arduino\Builds\sharpmem\Arduino_STM32_mapleMini/core.a(HardwareSerial.cpp.o)
                                                  C:\Users\Nandi\AppData\Local\V.Micro\Arduino\Builds\sharpmem\Arduino_STM32_mapleMini/core.a(wirish_digital_f1.cpp.o)
                                                  C:\Users\Nandi\AppData\Local\V.Micro\Arduino\Builds\sharpmem\Arduino_STM32_mapleMini/core.a(wirish_digital.cpp.o)
                                                  C:\Users\Nandi\AppData\Local\V.Micro\Arduino\Builds\sharpmem\Arduino_STM32_mapleMini\SharpMemSTM32.cpp.o
                                                  C:\Users\Nandi\AppData\Local\V.Micro\Arduino\Builds\sharpmem\Arduino_STM32_mapleMini\SPI\SPI.cpp.o
PMAToUserBufferCopy                               C:\Users\Nandi\AppData\Local\V.Micro\Arduino\Builds\sharpmem\Arduino_STM32_mapleMini/core.a(usb_mem.c.o)
                                                  C:\Users\Nandi\AppData\Local\V.Micro\Arduino\Builds\sharpmem\Arduino_STM32_mapleMini/core.a(usb_core.c.o)
Post0_Process                                     C:\Users\Nandi\AppData\Local\V.Micro\Arduino\Builds\sharpmem\Arduino_STM32_mapleMini/core.a(usb_core.c.o)
Print::print(String const&)                       C:\Users\Nandi\AppData\Local\V.Micro\Arduino\Builds\sharpmem\Arduino_STM32_mapleMini/core.a(Print.cpp.o)
Print::print(char const*)                         C:\Users\Nandi\AppData\Local\V.Micro\Arduino\Builds\sharpmem\Arduino_STM32_mapleMini/core.a(Print.cpp.o)
                                                  C:\Users\Nandi\AppData\Local\V.Micro\Arduino\Builds\sharpmem\Arduino_STM32_mapleMini\Adafruit-GFX-Library-master\Adafruit_GFX.cpp.o
                                                  C:\Users\Nandi\AppData\Local\V.Micro\Arduino\Builds\sharpmem\Arduino_STM32_mapleMini\sharpmem.cpp.o
Print::print(char)                                C:\Users\Nandi\AppData\Local\V.Micro\Arduino\Builds\sharpmem\Arduino_STM32_mapleMini/core.a(Print.cpp.o)
Print::print(double, int)                         C:\Users\Nandi\AppData\Local\V.Micro\Arduino\Builds\sharpmem\Arduino_STM32_mapleMini/core.a(Print.cpp.o)
Print::print(int, int)                            C:\Users\Nandi\AppData\Local\V.Micro\Arduino\Builds\sharpmem\Arduino_STM32_mapleMini/core.a(Print.cpp.o)
                                                  C:\Users\Nandi\AppData\Local\V.Micro\Arduino\Builds\sharpmem\Arduino_STM32_mapleMini\sharpmem.cpp.o
Print::print(long long, int)                      C:\Users\Nandi\AppData\Local\V.Micro\Arduino\Builds\sharpmem\Arduino_STM32_mapleMini/core.a(Print.cpp.o)
Print::print(long, int)                           C:\Users\Nandi\AppData\Local\V.Micro\Arduino\Builds\sharpmem\Arduino_STM32_mapleMini/core.a(Print.cpp.o)
Print::print(unsigned char, int)                  C:\Users\Nandi\AppData\Local\V.Micro\Arduino\Builds\sharpmem\Arduino_STM32_mapleMini/core.a(Print.cpp.o)
Print::print(unsigned int, int)                   C:\Users\Nandi\AppData\Local\V.Micro\Arduino\Builds\sharpmem\Arduino_STM32_mapleMini/core.a(Print.cpp.o)
Print::print(unsigned long long, int)             C:\Users\Nandi\AppData\Local\V.Micro\Arduino\Builds\sharpmem\Arduino_STM32_mapleMini/core.a(Print.cpp.o)
Print::print(unsigned long, int)                  C:\Users\Nandi\AppData\Local\V.Micro\Arduino\Builds\sharpmem\Arduino_STM32_mapleMini/core.a(Print.cpp.o)
Print::printFloat(double, unsigned char)          C:\Users\Nandi\AppData\Local\V.Micro\Arduino\Builds\sharpmem\Arduino_STM32_mapleMini/core.a(Print.cpp.o)
Print::printNumber(unsigned long long, unsigned char) C:\Users\Nandi\AppData\Local\V.Micro\Arduino\Builds\sharpmem\Arduino_STM32_mapleMini/core.a(Print.cpp.o)
Print::println()                                  C:\Users\Nandi\AppData\Local\V.Micro\Arduino\Builds\sharpmem\Arduino_STM32_mapleMini/core.a(Print.cpp.o)
Print::println(String const&)                     C:\Users\Nandi\AppData\Local\V.Micro\Arduino\Builds\sharpmem\Arduino_STM32_mapleMini/core.a(Print.cpp.o)
Print::println(char const*)                       C:\Users\Nandi\AppData\Local\V.Micro\Arduino\Builds\sharpmem\Arduino_STM32_mapleMini/core.a(Print.cpp.o)
                                                  C:\Users\Nandi\AppData\Local\V.Micro\Arduino\Builds\sharpmem\Arduino_STM32_mapleMini\SharpMemSTM32.cpp.o
                                                  C:\Users\Nandi\AppData\Local\V.Micro\Arduino\Builds\sharpmem\Arduino_STM32_mapleMini\sharpmem.cpp.o
Print::println(char)                              C:\Users\Nandi\AppData\Local\V.Micro\Arduino\Builds\sharpmem\Arduino_STM32_mapleMini/core.a(Print.cpp.o)
Print::println(double, int)                       C:\Users\Nandi\AppData\Local\V.Micro\Arduino\Builds\sharpmem\Arduino_STM32_mapleMini/core.a(Print.cpp.o)
Print::println(int, int)                          C:\Users\Nandi\AppData\Local\V.Micro\Arduino\Builds\sharpmem\Arduino_STM32_mapleMini/core.a(Print.cpp.o)
Print::println(long long, int)                    C:\Users\Nandi\AppData\Local\V.Micro\Arduino\Builds\sharpmem\Arduino_STM32_mapleMini/core.a(Print.cpp.o)
Print::println(long, int)                         C:\Users\Nandi\AppData\Local\V.Micro\Arduino\Builds\sharpmem\Arduino_STM32_mapleMini/core.a(Print.cpp.o)
Print::println(unsigned char, int)                C:\Users\Nandi\AppData\Local\V.Micro\Arduino\Builds\sharpmem\Arduino_STM32_mapleMini/core.a(Print.cpp.o)
Print::println(unsigned int, int)                 C:\Users\Nandi\AppData\Local\V.Micro\Arduino\Builds\sharpmem\Arduino_STM32_mapleMini/core.a(Print.cpp.o)
Print::println(unsigned long long, int)           C:\Users\Nandi\AppData\Local\V.Micro\Arduino\Builds\sharpmem\Arduino_STM32_mapleMini/core.a(Print.cpp.o)
Print::println(unsigned long, int)                C:\Users\Nandi\AppData\Local\V.Micro\Arduino\Builds\sharpmem\Arduino_STM32_mapleMini/core.a(Print.cpp.o)
Print::write(char const*)                         C:\Users\Nandi\AppData\Local\V.Micro\Arduino\Builds\sharpmem\Arduino_STM32_mapleMini/core.a(Print.cpp.o)
                                                  C:\Users\Nandi\AppData\Local\V.Micro\Arduino\Builds\sharpmem\Arduino_STM32_mapleMini/core.a(HardwareSerial.cpp.o)
                                                  C:\Users\Nandi\AppData\Local\V.Micro\Arduino\Builds\sharpmem\Arduino_STM32_mapleMini/core.a(usb_serial.cpp.o)
                                                  C:\Users\Nandi\AppData\Local\V.Micro\Arduino\Builds\sharpmem\Arduino_STM32_mapleMini\SharpMemSTM32.cpp.o
                                                  C:\Users\Nandi\AppData\Local\V.Micro\Arduino\Builds\sharpmem\Arduino_STM32_mapleMini\Adafruit-GFX-Library-master\Adafruit_GFX.cpp.o
Print::write(void const*, unsigned long)          C:\Users\Nandi\AppData\Local\V.Micro\Arduino\Builds\sharpmem\Arduino_STM32_mapleMini/core.a(Print.cpp.o)
                                                  C:\Users\Nandi\AppData\Local\V.Micro\Arduino\Builds\sharpmem\Arduino_STM32_mapleMini/core.a(HardwareSerial.cpp.o)
                                                  C:\Users\Nandi\AppData\Local\V.Micro\Arduino\Builds\sharpmem\Arduino_STM32_mapleMini/core.a(usb_serial.cpp.o)
                                                  C:\Users\Nandi\AppData\Local\V.Micro\Arduino\Builds\sharpmem\Arduino_STM32_mapleMini\SharpMemSTM32.cpp.o
                                                  C:\Users\Nandi\AppData\Local\V.Micro\Arduino\Builds\sharpmem\Arduino_STM32_mapleMini\Adafruit-GFX-Library-master\Adafruit_GFX.cpp.o
ResumeS                                           C:\Users\Nandi\AppData\Local\V.Micro\Arduino\Builds\sharpmem\Arduino_STM32_mapleMini/core.a(usb.c.o)
SPI                                               C:\Users\Nandi\AppData\Local\V.Micro\Arduino\Builds\sharpmem\Arduino_STM32_mapleMini\SPI\SPI.cpp.o
                                                  C:\Users\Nandi\AppData\Local\V.Micro\Arduino\Builds\sharpmem\Arduino_STM32_mapleMini\SharpMemSTM32.cpp.o
SPI1                                              C:\Users\Nandi\AppData\Local\V.Micro\Arduino\Builds\sharpmem\Arduino_STM32_mapleMini/core.a(spi_f1.c.o)
                                                  C:\Users\Nandi\AppData\Local\V.Micro\Arduino\Builds\sharpmem\Arduino_STM32_mapleMini\SPI\SPI.cpp.o
SPI2                                              C:\Users\Nandi\AppData\Local\V.Micro\Arduino\Builds\sharpmem\Arduino_STM32_mapleMini/core.a(spi_f1.c.o)
                                                  C:\Users\Nandi\AppData\Local\V.Micro\Arduino\Builds\sharpmem\Arduino_STM32_mapleMini\SPI\SPI.cpp.o
SPIClass::SPIClass(unsigned long)                 C:\Users\Nandi\AppData\Local\V.Micro\Arduino\Builds\sharpmem\Arduino_STM32_mapleMini\SPI\SPI.cpp.o
SPIClass::SPIClass(unsigned long)                 C:\Users\Nandi\AppData\Local\V.Micro\Arduino\Builds\sharpmem\Arduino_STM32_mapleMini\SPI\SPI.cpp.o
SPIClass::attachInterrupt()                       C:\Users\Nandi\AppData\Local\V.Micro\Arduino\Builds\sharpmem\Arduino_STM32_mapleMini\SPI\SPI.cpp.o
SPIClass::begin()                                 C:\Users\Nandi\AppData\Local\V.Micro\Arduino\Builds\sharpmem\Arduino_STM32_mapleMini\SPI\SPI.cpp.o
                                                  C:\Users\Nandi\AppData\Local\V.Micro\Arduino\Builds\sharpmem\Arduino_STM32_mapleMini\SharpMemSTM32.cpp.o
SPIClass::beginSlave()                            C:\Users\Nandi\AppData\Local\V.Micro\Arduino\Builds\sharpmem\Arduino_STM32_mapleMini\SPI\SPI.cpp.o
SPIClass::beginTransaction(unsigned char, SPISettings) C:\Users\Nandi\AppData\Local\V.Micro\Arduino\Builds\sharpmem\Arduino_STM32_mapleMini\SPI\SPI.cpp.o
SPIClass::detachInterrupt()                       C:\Users\Nandi\AppData\Local\V.Micro\Arduino\Builds\sharpmem\Arduino_STM32_mapleMini\SPI\SPI.cpp.o
SPIClass::dmaSend(unsigned char*, unsigned short, bool) C:\Users\Nandi\AppData\Local\V.Micro\Arduino\Builds\sharpmem\Arduino_STM32_mapleMini\SPI\SPI.cpp.o
SPIClass::dmaSend(unsigned short*, unsigned short, bool) C:\Users\Nandi\AppData\Local\V.Micro\Arduino\Builds\sharpmem\Arduino_STM32_mapleMini\SPI\SPI.cpp.o
SPIClass::dmaTransfer(unsigned char*, unsigned char*, unsigned short) C:\Users\Nandi\AppData\Local\V.Micro\Arduino\Builds\sharpmem\Arduino_STM32_mapleMini\SPI\SPI.cpp.o
SPIClass::end()                                   C:\Users\Nandi\AppData\Local\V.Micro\Arduino\Builds\sharpmem\Arduino_STM32_mapleMini\SPI\SPI.cpp.o
SPIClass::endTransaction()                        C:\Users\Nandi\AppData\Local\V.Micro\Arduino\Builds\sharpmem\Arduino_STM32_mapleMini\SPI\SPI.cpp.o
SPIClass::misoPin()                               C:\Users\Nandi\AppData\Local\V.Micro\Arduino\Builds\sharpmem\Arduino_STM32_mapleMini\SPI\SPI.cpp.o
SPIClass::mosiPin()                               C:\Users\Nandi\AppData\Local\V.Micro\Arduino\Builds\sharpmem\Arduino_STM32_mapleMini\SPI\SPI.cpp.o
SPIClass::nssPin()                                C:\Users\Nandi\AppData\Local\V.Micro\Arduino\Builds\sharpmem\Arduino_STM32_mapleMini\SPI\SPI.cpp.o
SPIClass::read()                                  C:\Users\Nandi\AppData\Local\V.Micro\Arduino\Builds\sharpmem\Arduino_STM32_mapleMini\SPI\SPI.cpp.o
SPIClass::read(unsigned char*, unsigned long)     C:\Users\Nandi\AppData\Local\V.Micro\Arduino\Builds\sharpmem\Arduino_STM32_mapleMini\SPI\SPI.cpp.o
SPIClass::recv()                                  C:\Users\Nandi\AppData\Local\V.Micro\Arduino\Builds\sharpmem\Arduino_STM32_mapleMini\SPI\SPI.cpp.o
SPIClass::sckPin()                                C:\Users\Nandi\AppData\Local\V.Micro\Arduino\Builds\sharpmem\Arduino_STM32_mapleMini\SPI\SPI.cpp.o
SPIClass::send(unsigned char)                     C:\Users\Nandi\AppData\Local\V.Micro\Arduino\Builds\sharpmem\Arduino_STM32_mapleMini\SPI\SPI.cpp.o
SPIClass::send(unsigned char*, unsigned long)     C:\Users\Nandi\AppData\Local\V.Micro\Arduino\Builds\sharpmem\Arduino_STM32_mapleMini\SPI\SPI.cpp.o
SPIClass::setBitOrder(BitOrder)                   C:\Users\Nandi\AppData\Local\V.Micro\Arduino\Builds\sharpmem\Arduino_STM32_mapleMini\SPI\SPI.cpp.o
                                                  C:\Users\Nandi\AppData\Local\V.Micro\Arduino\Builds\sharpmem\Arduino_STM32_mapleMini\SharpMemSTM32.cpp.o
SPIClass::setClockDivider(unsigned long)          C:\Users\Nandi\AppData\Local\V.Micro\Arduino\Builds\sharpmem\Arduino_STM32_mapleMini\SPI\SPI.cpp.o
                                                  C:\Users\Nandi\AppData\Local\V.Micro\Arduino\Builds\sharpmem\Arduino_STM32_mapleMini\SharpMemSTM32.cpp.o
SPIClass::setDataMode(unsigned char)              C:\Users\Nandi\AppData\Local\V.Micro\Arduino\Builds\sharpmem\Arduino_STM32_mapleMini\SPI\SPI.cpp.o
                                                  C:\Users\Nandi\AppData\Local\V.Micro\Arduino\Builds\sharpmem\Arduino_STM32_mapleMini\SharpMemSTM32.cpp.o
SPIClass::setDataSize(unsigned long)              C:\Users\Nandi\AppData\Local\V.Micro\Arduino\Builds\sharpmem\Arduino_STM32_mapleMini\SPI\SPI.cpp.o
                                                  C:\Users\Nandi\AppData\Local\V.Micro\Arduino\Builds\sharpmem\Arduino_STM32_mapleMini\SharpMemSTM32.cpp.o
SPIClass::transfer(unsigned char) const           C:\Users\Nandi\AppData\Local\V.Micro\Arduino\Builds\sharpmem\Arduino_STM32_mapleMini\SPI\SPI.cpp.o
                                                  C:\Users\Nandi\AppData\Local\V.Micro\Arduino\Builds\sharpmem\Arduino_STM32_mapleMini\SharpMemSTM32.cpp.o
SPIClass::write(unsigned char const*, unsigned long) C:\Users\Nandi\AppData\Local\V.Micro\Arduino\Builds\sharpmem\Arduino_STM32_mapleMini\SPI\SPI.cpp.o
                                                  C:\Users\Nandi\AppData\Local\V.Micro\Arduino\Builds\sharpmem\Arduino_STM32_mapleMini\SharpMemSTM32.cpp.o
SPIClass::write(unsigned short)                   C:\Users\Nandi\AppData\Local\V.Micro\Arduino\Builds\sharpmem\Arduino_STM32_mapleMini\SPI\SPI.cpp.o
SaveRState                                        C:\Users\Nandi\AppData\Local\V.Micro\Arduino\Builds\sharpmem\Arduino_STM32_mapleMini/core.a(usb_core.c.o)
                                                  C:\Users\Nandi\AppData\Local\V.Micro\Arduino\Builds\sharpmem\Arduino_STM32_mapleMini/core.a(usb.c.o)
SaveState                                         C:\Users\Nandi\AppData\Local\V.Micro\Arduino\Builds\sharpmem\Arduino_STM32_mapleMini/core.a(usb_init.c.o)
SaveTState                                        C:\Users\Nandi\AppData\Local\V.Micro\Arduino\Builds\sharpmem\Arduino_STM32_mapleMini/core.a(usb_core.c.o)
                                                  C:\Users\Nandi\AppData\Local\V.Micro\Arduino\Builds\sharpmem\Arduino_STM32_mapleMini/core.a(usb.c.o)
Serial                                            C:\Users\Nandi\AppData\Local\V.Micro\Arduino\Builds\sharpmem\Arduino_STM32_mapleMini/core.a(usb_serial.cpp.o)
                                                  C:\Users\Nandi\AppData\Local\V.Micro\Arduino\Builds\sharpmem\Arduino_STM32_mapleMini/core.a(boards_setup.cpp.o)
                                                  C:\Users\Nandi\AppData\Local\V.Micro\Arduino\Builds\sharpmem\Arduino_STM32_mapleMini\SharpMemSTM32.cpp.o
                                                  C:\Users\Nandi\AppData\Local\V.Micro\Arduino\Builds\sharpmem\Arduino_STM32_mapleMini\sharpmem.cpp.o
Serial1                                           C:\Users\Nandi\AppData\Local\V.Micro\Arduino\Builds\sharpmem\Arduino_STM32_mapleMini/core.a(board.cpp.o)
Serial2                                           C:\Users\Nandi\AppData\Local\V.Micro\Arduino\Builds\sharpmem\Arduino_STM32_mapleMini/core.a(board.cpp.o)
Serial3                                           C:\Users\Nandi\AppData\Local\V.Micro\Arduino\Builds\sharpmem\Arduino_STM32_mapleMini/core.a(board.cpp.o)
SetBTABLE                                         C:\Users\Nandi\AppData\Local\V.Micro\Arduino\Builds\sharpmem\Arduino_STM32_mapleMini/core.a(usb_regs.c.o)
SetCNTR                                           C:\Users\Nandi\AppData\Local\V.Micro\Arduino\Builds\sharpmem\Arduino_STM32_mapleMini/core.a(usb_regs.c.o)
SetDADDR                                          C:\Users\Nandi\AppData\Local\V.Micro\Arduino\Builds\sharpmem\Arduino_STM32_mapleMini/core.a(usb_regs.c.o)
SetDeviceAddress                                  C:\Users\Nandi\AppData\Local\V.Micro\Arduino\Builds\sharpmem\Arduino_STM32_mapleMini/core.a(usb_core.c.o)
                                                  C:\Users\Nandi\AppData\Local\V.Micro\Arduino\Builds\sharpmem\Arduino_STM32_mapleMini/core.a(usb_cdcacm.c.o)
SetDouBleBuffEPStall                              C:\Users\Nandi\AppData\Local\V.Micro\Arduino\Builds\sharpmem\Arduino_STM32_mapleMini/core.a(usb_regs.c.o)
SetENDPOINT                                       C:\Users\Nandi\AppData\Local\V.Micro\Arduino\Builds\sharpmem\Arduino_STM32_mapleMini/core.a(usb_regs.c.o)
SetEPAddress                                      C:\Users\Nandi\AppData\Local\V.Micro\Arduino\Builds\sharpmem\Arduino_STM32_mapleMini/core.a(usb_regs.c.o)
SetEPCountRxReg                                   C:\Users\Nandi\AppData\Local\V.Micro\Arduino\Builds\sharpmem\Arduino_STM32_mapleMini/core.a(usb_regs.c.o)
SetEPDblBuf0Addr                                  C:\Users\Nandi\AppData\Local\V.Micro\Arduino\Builds\sharpmem\Arduino_STM32_mapleMini/core.a(usb_regs.c.o)
SetEPDblBuf0Count                                 C:\Users\Nandi\AppData\Local\V.Micro\Arduino\Builds\sharpmem\Arduino_STM32_mapleMini/core.a(usb_regs.c.o)
SetEPDblBuf1Addr                                  C:\Users\Nandi\AppData\Local\V.Micro\Arduino\Builds\sharpmem\Arduino_STM32_mapleMini/core.a(usb_regs.c.o)
SetEPDblBuf1Count                                 C:\Users\Nandi\AppData\Local\V.Micro\Arduino\Builds\sharpmem\Arduino_STM32_mapleMini/core.a(usb_regs.c.o)
SetEPDblBuffAddr                                  C:\Users\Nandi\AppData\Local\V.Micro\Arduino\Builds\sharpmem\Arduino_STM32_mapleMini/core.a(usb_regs.c.o)
SetEPDblBuffCount                                 C:\Users\Nandi\AppData\Local\V.Micro\Arduino\Builds\sharpmem\Arduino_STM32_mapleMini/core.a(usb_regs.c.o)
SetEPDoubleBuff                                   C:\Users\Nandi\AppData\Local\V.Micro\Arduino\Builds\sharpmem\Arduino_STM32_mapleMini/core.a(usb_regs.c.o)
SetEPRxAddr                                       C:\Users\Nandi\AppData\Local\V.Micro\Arduino\Builds\sharpmem\Arduino_STM32_mapleMini/core.a(usb_regs.c.o)
SetEPRxCount                                      C:\Users\Nandi\AppData\Local\V.Micro\Arduino\Builds\sharpmem\Arduino_STM32_mapleMini/core.a(usb_regs.c.o)
                                                  C:\Users\Nandi\AppData\Local\V.Micro\Arduino\Builds\sharpmem\Arduino_STM32_mapleMini/core.a(usb_core.c.o)
SetEPRxStatus                                     C:\Users\Nandi\AppData\Local\V.Micro\Arduino\Builds\sharpmem\Arduino_STM32_mapleMini/core.a(usb_regs.c.o)
SetEPRxValid                                      C:\Users\Nandi\AppData\Local\V.Micro\Arduino\Builds\sharpmem\Arduino_STM32_mapleMini/core.a(usb_regs.c.o)
SetEPTxAddr                                       C:\Users\Nandi\AppData\Local\V.Micro\Arduino\Builds\sharpmem\Arduino_STM32_mapleMini/core.a(usb_regs.c.o)
SetEPTxCount                                      C:\Users\Nandi\AppData\Local\V.Micro\Arduino\Builds\sharpmem\Arduino_STM32_mapleMini/core.a(usb_regs.c.o)
                                                  C:\Users\Nandi\AppData\Local\V.Micro\Arduino\Builds\sharpmem\Arduino_STM32_mapleMini/core.a(usb_core.c.o)
SetEPTxStatus                                     C:\Users\Nandi\AppData\Local\V.Micro\Arduino\Builds\sharpmem\Arduino_STM32_mapleMini/core.a(usb_regs.c.o)
                                                  C:\Users\Nandi\AppData\Local\V.Micro\Arduino\Builds\sharpmem\Arduino_STM32_mapleMini/core.a(usb_core.c.o)
SetEPTxValid                                      C:\Users\Nandi\AppData\Local\V.Micro\Arduino\Builds\sharpmem\Arduino_STM32_mapleMini/core.a(usb_regs.c.o)
SetEPType                                         C:\Users\Nandi\AppData\Local\V.Micro\Arduino\Builds\sharpmem\Arduino_STM32_mapleMini/core.a(usb_regs.c.o)
SetEP_KIND                                        C:\Users\Nandi\AppData\Local\V.Micro\Arduino\Builds\sharpmem\Arduino_STM32_mapleMini/core.a(usb_regs.c.o)
SetISTR                                           C:\Users\Nandi\AppData\Local\V.Micro\Arduino\Builds\sharpmem\Arduino_STM32_mapleMini/core.a(usb_regs.c.o)
Set_Status_Out                                    C:\Users\Nandi\AppData\Local\V.Micro\Arduino\Builds\sharpmem\Arduino_STM32_mapleMini/core.a(usb_regs.c.o)
Setup0_Process                                    C:\Users\Nandi\AppData\Local\V.Micro\Arduino\Builds\sharpmem\Arduino_STM32_mapleMini/core.a(usb_core.c.o)
                                                  C:\Users\Nandi\AppData\Local\V.Micro\Arduino\Builds\sharpmem\Arduino_STM32_mapleMini/core.a(usb.c.o)
SharpMem::SharpMem(unsigned char, unsigned char, unsigned char) C:\Users\Nandi\AppData\Local\V.Micro\Arduino\Builds\sharpmem\Arduino_STM32_mapleMini\SharpMemSTM32.cpp.o
SharpMem::SharpMem(unsigned char, unsigned char, unsigned char) C:\Users\Nandi\AppData\Local\V.Micro\Arduino\Builds\sharpmem\Arduino_STM32_mapleMini\SharpMemSTM32.cpp.o
                                                  C:\Users\Nandi\AppData\Local\V.Micro\Arduino\Builds\sharpmem\Arduino_STM32_mapleMini\sharpmem.cpp.o
SharpMem::begin()                                 C:\Users\Nandi\AppData\Local\V.Micro\Arduino\Builds\sharpmem\Arduino_STM32_mapleMini\SharpMemSTM32.cpp.o
                                                  C:\Users\Nandi\AppData\Local\V.Micro\Arduino\Builds\sharpmem\Arduino_STM32_mapleMini\sharpmem.cpp.o
SharpMem::clearBuffer()                           C:\Users\Nandi\AppData\Local\V.Micro\Arduino\Builds\sharpmem\Arduino_STM32_mapleMini\SharpMemSTM32.cpp.o
                                                  C:\Users\Nandi\AppData\Local\V.Micro\Arduino\Builds\sharpmem\Arduino_STM32_mapleMini\sharpmem.cpp.o
SharpMem::clearDisplay()                          C:\Users\Nandi\AppData\Local\V.Micro\Arduino\Builds\sharpmem\Arduino_STM32_mapleMini\SharpMemSTM32.cpp.o
SharpMem::drawPixel(short, short, unsigned short) C:\Users\Nandi\AppData\Local\V.Micro\Arduino\Builds\sharpmem\Arduino_STM32_mapleMini\SharpMemSTM32.cpp.o
SharpMem::getPixel(unsigned short, unsigned short) C:\Users\Nandi\AppData\Local\V.Micro\Arduino\Builds\sharpmem\Arduino_STM32_mapleMini\SharpMemSTM32.cpp.o
SharpMem::refresh()                               C:\Users\Nandi\AppData\Local\V.Micro\Arduino\Builds\sharpmem\Arduino_STM32_mapleMini\SharpMemSTM32.cpp.o
                                                  C:\Users\Nandi\AppData\Local\V.Micro\Arduino\Builds\sharpmem\Arduino_STM32_mapleMini\sharpmem.cpp.o
SharpMem::reverseBitOrder(unsigned char)          C:\Users\Nandi\AppData\Local\V.Micro\Arduino\Builds\sharpmem\Arduino_STM32_mapleMini\SharpMemSTM32.cpp.o
Standard_ClearFeature                             C:\Users\Nandi\AppData\Local\V.Micro\Arduino\Builds\sharpmem\Arduino_STM32_mapleMini/core.a(usb_core.c.o)
Standard_GetConfiguration                         C:\Users\Nandi\AppData\Local\V.Micro\Arduino\Builds\sharpmem\Arduino_STM32_mapleMini/core.a(usb_core.c.o)
Standard_GetDescriptorData                        C:\Users\Nandi\AppData\Local\V.Micro\Arduino\Builds\sharpmem\Arduino_STM32_mapleMini/core.a(usb_core.c.o)
                                                  C:\Users\Nandi\AppData\Local\V.Micro\Arduino\Builds\sharpmem\Arduino_STM32_mapleMini/core.a(usb_cdcacm.c.o)
Standard_GetInterface                             C:\Users\Nandi\AppData\Local\V.Micro\Arduino\Builds\sharpmem\Arduino_STM32_mapleMini/core.a(usb_core.c.o)
Standard_GetStatus                                C:\Users\Nandi\AppData\Local\V.Micro\Arduino\Builds\sharpmem\Arduino_STM32_mapleMini/core.a(usb_core.c.o)
Standard_SetConfiguration                         C:\Users\Nandi\AppData\Local\V.Micro\Arduino\Builds\sharpmem\Arduino_STM32_mapleMini/core.a(usb_core.c.o)
Standard_SetDeviceFeature                         C:\Users\Nandi\AppData\Local\V.Micro\Arduino\Builds\sharpmem\Arduino_STM32_mapleMini/core.a(usb_core.c.o)
Standard_SetEndPointFeature                       C:\Users\Nandi\AppData\Local\V.Micro\Arduino\Builds\sharpmem\Arduino_STM32_mapleMini/core.a(usb_core.c.o)
Standard_SetInterface                             C:\Users\Nandi\AppData\Local\V.Micro\Arduino\Builds\sharpmem\Arduino_STM32_mapleMini/core.a(usb_core.c.o)
StatusInfo                                        C:\Users\Nandi\AppData\Local\V.Micro\Arduino\Builds\sharpmem\Arduino_STM32_mapleMini/core.a(usb_core.c.o)
TIMER1                                            C:\Users\Nandi\AppData\Local\V.Micro\Arduino\Builds\sharpmem\Arduino_STM32_mapleMini/core.a(timer.c.o)
TIMER2                                            C:\Users\Nandi\AppData\Local\V.Micro\Arduino\Builds\sharpmem\Arduino_STM32_mapleMini/core.a(timer.c.o)
TIMER3                                            C:\Users\Nandi\AppData\Local\V.Micro\Arduino\Builds\sharpmem\Arduino_STM32_mapleMini/core.a(timer.c.o)
TIMER4                                            C:\Users\Nandi\AppData\Local\V.Micro\Arduino\Builds\sharpmem\Arduino_STM32_mapleMini/core.a(timer.c.o)
ToWord                                            C:\Users\Nandi\AppData\Local\V.Micro\Arduino\Builds\sharpmem\Arduino_STM32_mapleMini/core.a(usb_regs.c.o)
ToggleDTOG_RX                                     C:\Users\Nandi\AppData\Local\V.Micro\Arduino\Builds\sharpmem\Arduino_STM32_mapleMini/core.a(usb_regs.c.o)
ToggleDTOG_TX                                     C:\Users\Nandi\AppData\Local\V.Micro\Arduino\Builds\sharpmem\Arduino_STM32_mapleMini/core.a(usb_regs.c.o)
USART1                                            C:\Users\Nandi\AppData\Local\V.Micro\Arduino\Builds\sharpmem\Arduino_STM32_mapleMini/core.a(usart_f1.c.o)
                                                  C:\Users\Nandi\AppData\Local\V.Micro\Arduino\Builds\sharpmem\Arduino_STM32_mapleMini/core.a(board.cpp.o)
USART2                                            C:\Users\Nandi\AppData\Local\V.Micro\Arduino\Builds\sharpmem\Arduino_STM32_mapleMini/core.a(usart_f1.c.o)
                                                  C:\Users\Nandi\AppData\Local\V.Micro\Arduino\Builds\sharpmem\Arduino_STM32_mapleMini/core.a(board.cpp.o)
USART3                                            C:\Users\Nandi\AppData\Local\V.Micro\Arduino\Builds\sharpmem\Arduino_STM32_mapleMini/core.a(usart_f1.c.o)
                                                  C:\Users\Nandi\AppData\Local\V.Micro\Arduino\Builds\sharpmem\Arduino_STM32_mapleMini/core.a(board.cpp.o)
USBLIB                                            C:\Users\Nandi\AppData\Local\V.Micro\Arduino\Builds\sharpmem\Arduino_STM32_mapleMini/core.a(usb.c.o)
                                                  C:\Users\Nandi\AppData\Local\V.Micro\Arduino\Builds\sharpmem\Arduino_STM32_mapleMini/core.a(usb_cdcacm.c.o)
                                                  C:\Users\Nandi\AppData\Local\V.Micro\Arduino\Builds\sharpmem\Arduino_STM32_mapleMini/core.a(usb_serial.cpp.o)
USBSerial::USBSerial()                            C:\Users\Nandi\AppData\Local\V.Micro\Arduino\Builds\sharpmem\Arduino_STM32_mapleMini/core.a(usb_serial.cpp.o)
USBSerial::USBSerial()                            C:\Users\Nandi\AppData\Local\V.Micro\Arduino\Builds\sharpmem\Arduino_STM32_mapleMini/core.a(usb_serial.cpp.o)
USBSerial::available()                            C:\Users\Nandi\AppData\Local\V.Micro\Arduino\Builds\sharpmem\Arduino_STM32_mapleMini/core.a(usb_serial.cpp.o)
USBSerial::begin()                                C:\Users\Nandi\AppData\Local\V.Micro\Arduino\Builds\sharpmem\Arduino_STM32_mapleMini/core.a(usb_serial.cpp.o)
                                                  C:\Users\Nandi\AppData\Local\V.Micro\Arduino\Builds\sharpmem\Arduino_STM32_mapleMini/core.a(boards_setup.cpp.o)
USBSerial::begin(unsigned long)                   C:\Users\Nandi\AppData\Local\V.Micro\Arduino\Builds\sharpmem\Arduino_STM32_mapleMini/core.a(usb_serial.cpp.o)
                                                  C:\Users\Nandi\AppData\Local\V.Micro\Arduino\Builds\sharpmem\Arduino_STM32_mapleMini\sharpmem.cpp.o
USBSerial::begin(unsigned long, unsigned char)    C:\Users\Nandi\AppData\Local\V.Micro\Arduino\Builds\sharpmem\Arduino_STM32_mapleMini/core.a(usb_serial.cpp.o)
USBSerial::end()                                  C:\Users\Nandi\AppData\Local\V.Micro\Arduino\Builds\sharpmem\Arduino_STM32_mapleMini/core.a(usb_serial.cpp.o)
USBSerial::flush()                                C:\Users\Nandi\AppData\Local\V.Micro\Arduino\Builds\sharpmem\Arduino_STM32_mapleMini/core.a(usb_serial.cpp.o)
USBSerial::getDTR()                               C:\Users\Nandi\AppData\Local\V.Micro\Arduino\Builds\sharpmem\Arduino_STM32_mapleMini/core.a(usb_serial.cpp.o)
USBSerial::getRTS()                               C:\Users\Nandi\AppData\Local\V.Micro\Arduino\Builds\sharpmem\Arduino_STM32_mapleMini/core.a(usb_serial.cpp.o)
USBSerial::isConnected()                          C:\Users\Nandi\AppData\Local\V.Micro\Arduino\Builds\sharpmem\Arduino_STM32_mapleMini/core.a(usb_serial.cpp.o)
USBSerial::peek()                                 C:\Users\Nandi\AppData\Local\V.Micro\Arduino\Builds\sharpmem\Arduino_STM32_mapleMini/core.a(usb_serial.cpp.o)
USBSerial::pending()                              C:\Users\Nandi\AppData\Local\V.Micro\Arduino\Builds\sharpmem\Arduino_STM32_mapleMini/core.a(usb_serial.cpp.o)
USBSerial::read()                                 C:\Users\Nandi\AppData\Local\V.Micro\Arduino\Builds\sharpmem\Arduino_STM32_mapleMini/core.a(usb_serial.cpp.o)
USBSerial::read(void*, unsigned long)             C:\Users\Nandi\AppData\Local\V.Micro\Arduino\Builds\sharpmem\Arduino_STM32_mapleMini/core.a(usb_serial.cpp.o)
USBSerial::write(char const*)                     C:\Users\Nandi\AppData\Local\V.Micro\Arduino\Builds\sharpmem\Arduino_STM32_mapleMini/core.a(usb_serial.cpp.o)
USBSerial::write(unsigned char)                   C:\Users\Nandi\AppData\Local\V.Micro\Arduino\Builds\sharpmem\Arduino_STM32_mapleMini/core.a(usb_serial.cpp.o)
USBSerial::write(void const*, unsigned long)      C:\Users\Nandi\AppData\Local\V.Micro\Arduino\Builds\sharpmem\Arduino_STM32_mapleMini/core.a(usb_serial.cpp.o)
USB_Init                                          C:\Users\Nandi\AppData\Local\V.Micro\Arduino\Builds\sharpmem\Arduino_STM32_mapleMini/core.a(usb_init.c.o)
UserToPMABufferCopy                               C:\Users\Nandi\AppData\Local\V.Micro\Arduino\Builds\sharpmem\Arduino_STM32_mapleMini/core.a(usb_mem.c.o)
                                                  C:\Users\Nandi\AppData\Local\V.Micro\Arduino\Builds\sharpmem\Arduino_STM32_mapleMini/core.a(usb_core.c.o)
User_Standard_Requests                            C:\Users\Nandi\AppData\Local\V.Micro\Arduino\Builds\sharpmem\Arduino_STM32_mapleMini/core.a(usb_cdcacm.c.o)
                                                  C:\Users\Nandi\AppData\Local\V.Micro\Arduino\Builds\sharpmem\Arduino_STM32_mapleMini/core.a(usb_init.c.o)
                                                  C:\Users\Nandi\AppData\Local\V.Micro\Arduino\Builds\sharpmem\Arduino_STM32_mapleMini/core.a(usb.c.o)
_Jv_RegisterClasses                               c:/users/nandi/appdata/roaming/arduino15/packages/arduino/tools/arm-none-eabi-gcc/4.8.3-2014q1/bin/../lib/gcc/arm-none-eabi/4.8.3/armv7-m/crtbegin.o
__adddf3                                          c:/users/nandi/appdata/roaming/arduino15/packages/arduino/tools/arm-none-eabi-gcc/4.8.3-2014q1/bin/../lib/gcc/arm-none-eabi/4.8.3/armv7-m\libgcc.a(_arm_addsubdf3.o)
__addsf3                                          c:/users/nandi/appdata/roaming/arduino15/packages/arduino/tools/arm-none-eabi-gcc/4.8.3-2014q1/bin/../lib/gcc/arm-none-eabi/4.8.3/armv7-m\libgcc.a(_arm_addsubsf3.o)
__aeabi_cdcmpeq                                   c:/users/nandi/appdata/roaming/arduino15/packages/arduino/tools/arm-none-eabi-gcc/4.8.3-2014q1/bin/../lib/gcc/arm-none-eabi/4.8.3/armv7-m\libgcc.a(_arm_cmpdf2.o)
__aeabi_cdcmple                                   c:/users/nandi/appdata/roaming/arduino15/packages/arduino/tools/arm-none-eabi-gcc/4.8.3-2014q1/bin/../lib/gcc/arm-none-eabi/4.8.3/armv7-m\libgcc.a(_arm_cmpdf2.o)
__aeabi_cdrcmple                                  c:/users/nandi/appdata/roaming/arduino15/packages/arduino/tools/arm-none-eabi-gcc/4.8.3-2014q1/bin/../lib/gcc/arm-none-eabi/4.8.3/armv7-m\libgcc.a(_arm_cmpdf2.o)
__aeabi_cfcmpeq                                   c:/users/nandi/appdata/roaming/arduino15/packages/arduino/tools/arm-none-eabi-gcc/4.8.3-2014q1/bin/../lib/gcc/arm-none-eabi/4.8.3/armv7-m\libgcc.a(_arm_cmpsf2.o)
__aeabi_cfcmple                                   c:/users/nandi/appdata/roaming/arduino15/packages/arduino/tools/arm-none-eabi-gcc/4.8.3-2014q1/bin/../lib/gcc/arm-none-eabi/4.8.3/armv7-m\libgcc.a(_arm_cmpsf2.o)
__aeabi_cfrcmple                                  c:/users/nandi/appdata/roaming/arduino15/packages/arduino/tools/arm-none-eabi-gcc/4.8.3-2014q1/bin/../lib/gcc/arm-none-eabi/4.8.3/armv7-m\libgcc.a(_arm_cmpsf2.o)
__aeabi_d2f                                       c:/users/nandi/appdata/roaming/arduino15/packages/arduino/tools/arm-none-eabi-gcc/4.8.3-2014q1/bin/../lib/gcc/arm-none-eabi/4.8.3/armv7-m\libgcc.a(_arm_truncdfsf2.o)
                                                  C:\Users\Nandi\AppData\Local\V.Micro\Arduino\Builds\sharpmem\Arduino_STM32_mapleMini\sharpmem.cpp.o
__aeabi_d2iz                                      c:/users/nandi/appdata/roaming/arduino15/packages/arduino/tools/arm-none-eabi-gcc/4.8.3-2014q1/bin/../lib/gcc/arm-none-eabi/4.8.3/armv7-m\libgcc.a(_arm_fixdfsi.o)
                                                  C:\Users\Nandi\AppData\Local\V.Micro\Arduino\Builds\sharpmem\Arduino_STM32_mapleMini/core.a(Print.cpp.o)
__aeabi_d2lz                                      c:/users/nandi/appdata/roaming/arduino15/packages/arduino/tools/arm-none-eabi-gcc/4.8.3-2014q1/bin/../lib/gcc/arm-none-eabi/4.8.3/armv7-m\libgcc.a(_fixdfdi.o)
                                                  C:\Users\Nandi\AppData\Local\V.Micro\Arduino\Builds\sharpmem\Arduino_STM32_mapleMini/core.a(Print.cpp.o)
__aeabi_d2uiz                                     c:/users/nandi/appdata/roaming/arduino15/packages/arduino/tools/arm-none-eabi-gcc/4.8.3-2014q1/bin/../lib/gcc/arm-none-eabi/4.8.3/armv7-m\libgcc.a(_arm_fixunsdfsi.o)
                                                  c:/users/nandi/appdata/roaming/arduino15/packages/arduino/tools/arm-none-eabi-gcc/4.8.3-2014q1/bin/../lib/gcc/arm-none-eabi/4.8.3/armv7-m\libgcc.a(_fixunsdfdi.o)
__aeabi_d2ulz                                     c:/users/nandi/appdata/roaming/arduino15/packages/arduino/tools/arm-none-eabi-gcc/4.8.3-2014q1/bin/../lib/gcc/arm-none-eabi/4.8.3/armv7-m\libgcc.a(_fixunsdfdi.o)
                                                  c:/users/nandi/appdata/roaming/arduino15/packages/arduino/tools/arm-none-eabi-gcc/4.8.3-2014q1/bin/../lib/gcc/arm-none-eabi/4.8.3/armv7-m\libgcc.a(_fixdfdi.o)
__aeabi_dadd                                      c:/users/nandi/appdata/roaming/arduino15/packages/arduino/tools/arm-none-eabi-gcc/4.8.3-2014q1/bin/../lib/gcc/arm-none-eabi/4.8.3/armv7-m\libgcc.a(_arm_addsubdf3.o)
                                                  C:\Users\Nandi\AppData\Local\V.Micro\Arduino\Builds\sharpmem\Arduino_STM32_mapleMini/core.a(Print.cpp.o)
__aeabi_dcmpeq                                    c:/users/nandi/appdata/roaming/arduino15/packages/arduino/tools/arm-none-eabi-gcc/4.8.3-2014q1/bin/../lib/gcc/arm-none-eabi/4.8.3/armv7-m\libgcc.a(_arm_cmpdf2.o)
__aeabi_dcmpge                                    c:/users/nandi/appdata/roaming/arduino15/packages/arduino/tools/arm-none-eabi-gcc/4.8.3-2014q1/bin/../lib/gcc/arm-none-eabi/4.8.3/armv7-m\libgcc.a(_arm_cmpdf2.o)
                                                  C:\Users\Nandi\AppData\Local\V.Micro\Arduino\Builds\sharpmem\Arduino_STM32_mapleMini/core.a(Print.cpp.o)
__aeabi_dcmpgt                                    c:/users/nandi/appdata/roaming/arduino15/packages/arduino/tools/arm-none-eabi-gcc/4.8.3-2014q1/bin/../lib/gcc/arm-none-eabi/4.8.3/armv7-m\libgcc.a(_arm_cmpdf2.o)
                                                  C:\Users\Nandi\AppData\Local\V.Micro\Arduino\Builds\sharpmem\Arduino_STM32_mapleMini/core.a(Print.cpp.o)
__aeabi_dcmple                                    c:/users/nandi/appdata/roaming/arduino15/packages/arduino/tools/arm-none-eabi-gcc/4.8.3-2014q1/bin/../lib/gcc/arm-none-eabi/4.8.3/armv7-m\libgcc.a(_arm_cmpdf2.o)
                                                  C:\Users\Nandi\AppData\Local\V.Micro\Arduino\Builds\sharpmem\Arduino_STM32_mapleMini/core.a(Print.cpp.o)
__aeabi_dcmplt                                    c:/users/nandi/appdata/roaming/arduino15/packages/arduino/tools/arm-none-eabi-gcc/4.8.3-2014q1/bin/../lib/gcc/arm-none-eabi/4.8.3/armv7-m\libgcc.a(_arm_cmpdf2.o)
                                                  c:/users/nandi/appdata/roaming/arduino15/packages/arduino/tools/arm-none-eabi-gcc/4.8.3-2014q1/bin/../lib/gcc/arm-none-eabi/4.8.3/armv7-m\libgcc.a(_fixdfdi.o)
                                                  C:\Users\Nandi\AppData\Local\V.Micro\Arduino\Builds\sharpmem\Arduino_STM32_mapleMini/core.a(Print.cpp.o)
__aeabi_ddiv                                      c:/users/nandi/appdata/roaming/arduino15/packages/arduino/tools/arm-none-eabi-gcc/4.8.3-2014q1/bin/../lib/gcc/arm-none-eabi/4.8.3/armv7-m\libgcc.a(_arm_muldivdf3.o)
                                                  C:\Users\Nandi\AppData\Local\V.Micro\Arduino\Builds\sharpmem\Arduino_STM32_mapleMini/core.a(Print.cpp.o)
__aeabi_dmul                                      c:/users/nandi/appdata/roaming/arduino15/packages/arduino/tools/arm-none-eabi-gcc/4.8.3-2014q1/bin/../lib/gcc/arm-none-eabi/4.8.3/armv7-m\libgcc.a(_arm_muldivdf3.o)
                                                  c:/users/nandi/appdata/roaming/arduino15/packages/arduino/tools/arm-none-eabi-gcc/4.8.3-2014q1/bin/../lib/gcc/arm-none-eabi/4.8.3/armv7-m\libgcc.a(_fixunsdfdi.o)
                                                  C:\Users\Nandi\AppData\Local\V.Micro\Arduino\Builds\sharpmem\Arduino_STM32_mapleMini/core.a(Print.cpp.o)
                                                  C:\Users\Nandi\AppData\Local\V.Micro\Arduino\Builds\sharpmem\Arduino_STM32_mapleMini\sharpmem.cpp.o
__aeabi_drsub                                     c:/users/nandi/appdata/roaming/arduino15/packages/arduino/tools/arm-none-eabi-gcc/4.8.3-2014q1/bin/../lib/gcc/arm-none-eabi/4.8.3/armv7-m\libgcc.a(_arm_addsubdf3.o)
__aeabi_dsub                                      c:/users/nandi/appdata/roaming/arduino15/packages/arduino/tools/arm-none-eabi-gcc/4.8.3-2014q1/bin/../lib/gcc/arm-none-eabi/4.8.3/armv7-m\libgcc.a(_arm_addsubdf3.o)
                                                  c:/users/nandi/appdata/roaming/arduino15/packages/arduino/tools/arm-none-eabi-gcc/4.8.3-2014q1/bin/../lib/gcc/arm-none-eabi/4.8.3/armv7-m\libgcc.a(_fixunsdfdi.o)
                                                  C:\Users\Nandi\AppData\Local\V.Micro\Arduino\Builds\sharpmem\Arduino_STM32_mapleMini/core.a(Print.cpp.o)
__aeabi_f2d                                       c:/users/nandi/appdata/roaming/arduino15/packages/arduino/tools/arm-none-eabi-gcc/4.8.3-2014q1/bin/../lib/gcc/arm-none-eabi/4.8.3/armv7-m\libgcc.a(_arm_addsubdf3.o)
                                                  C:\Users\Nandi\AppData\Local\V.Micro\Arduino\Builds\sharpmem\Arduino_STM32_mapleMini\sharpmem.cpp.o
__aeabi_f2iz                                      c:/users/nandi/appdata/roaming/arduino15/packages/arduino/tools/arm-none-eabi-gcc/4.8.3-2014q1/bin/../lib/gcc/arm-none-eabi/4.8.3/armv7-m\libgcc.a(_arm_fixsfsi.o)
                                                  C:\Users\Nandi\AppData\Local\V.Micro\Arduino\Builds\sharpmem\Arduino_STM32_mapleMini\sharpmem.cpp.o
__aeabi_fadd                                      c:/users/nandi/appdata/roaming/arduino15/packages/arduino/tools/arm-none-eabi-gcc/4.8.3-2014q1/bin/../lib/gcc/arm-none-eabi/4.8.3/armv7-m\libgcc.a(_arm_addsubsf3.o)
                                                  C:\Users\Nandi\AppData\Local\V.Micro\Arduino\Builds\sharpmem\Arduino_STM32_mapleMini\sharpmem.cpp.o
__aeabi_fcmpeq                                    c:/users/nandi/appdata/roaming/arduino15/packages/arduino/tools/arm-none-eabi-gcc/4.8.3-2014q1/bin/../lib/gcc/arm-none-eabi/4.8.3/armv7-m\libgcc.a(_arm_cmpsf2.o)
__aeabi_fcmpge                                    c:/users/nandi/appdata/roaming/arduino15/packages/arduino/tools/arm-none-eabi-gcc/4.8.3-2014q1/bin/../lib/gcc/arm-none-eabi/4.8.3/armv7-m\libgcc.a(_arm_cmpsf2.o)
__aeabi_fcmpgt                                    c:/users/nandi/appdata/roaming/arduino15/packages/arduino/tools/arm-none-eabi-gcc/4.8.3-2014q1/bin/../lib/gcc/arm-none-eabi/4.8.3/armv7-m\libgcc.a(_arm_cmpsf2.o)
                                                  C:\Users\Nandi\AppData\Local\V.Micro\Arduino\Builds\sharpmem\Arduino_STM32_mapleMini\sharpmem.cpp.o
__aeabi_fcmple                                    c:/users/nandi/appdata/roaming/arduino15/packages/arduino/tools/arm-none-eabi-gcc/4.8.3-2014q1/bin/../lib/gcc/arm-none-eabi/4.8.3/armv7-m\libgcc.a(_arm_cmpsf2.o)
__aeabi_fcmplt                                    c:/users/nandi/appdata/roaming/arduino15/packages/arduino/tools/arm-none-eabi-gcc/4.8.3-2014q1/bin/../lib/gcc/arm-none-eabi/4.8.3/armv7-m\libgcc.a(_arm_cmpsf2.o)
__aeabi_fdiv                                      c:/users/nandi/appdata/roaming/arduino15/packages/arduino/tools/arm-none-eabi-gcc/4.8.3-2014q1/bin/../lib/gcc/arm-none-eabi/4.8.3/armv7-m\libgcc.a(_arm_muldivsf3.o)
__aeabi_fmul                                      c:/users/nandi/appdata/roaming/arduino15/packages/arduino/tools/arm-none-eabi-gcc/4.8.3-2014q1/bin/../lib/gcc/arm-none-eabi/4.8.3/armv7-m\libgcc.a(_arm_muldivsf3.o)
                                                  C:\Users\Nandi\AppData\Local\V.Micro\Arduino\Builds\sharpmem\Arduino_STM32_mapleMini\sharpmem.cpp.o
__aeabi_frsub                                     c:/users/nandi/appdata/roaming/arduino15/packages/arduino/tools/arm-none-eabi-gcc/4.8.3-2014q1/bin/../lib/gcc/arm-none-eabi/4.8.3/armv7-m\libgcc.a(_arm_addsubsf3.o)
__aeabi_fsub                                      c:/users/nandi/appdata/roaming/arduino15/packages/arduino/tools/arm-none-eabi-gcc/4.8.3-2014q1/bin/../lib/gcc/arm-none-eabi/4.8.3/armv7-m\libgcc.a(_arm_addsubsf3.o)
__aeabi_i2d                                       c:/users/nandi/appdata/roaming/arduino15/packages/arduino/tools/arm-none-eabi-gcc/4.8.3-2014q1/bin/../lib/gcc/arm-none-eabi/4.8.3/armv7-m\libgcc.a(_arm_addsubdf3.o)
                                                  C:\Users\Nandi\AppData\Local\V.Micro\Arduino\Builds\sharpmem\Arduino_STM32_mapleMini/core.a(Print.cpp.o)
__aeabi_i2f                                       c:/users/nandi/appdata/roaming/arduino15/packages/arduino/tools/arm-none-eabi-gcc/4.8.3-2014q1/bin/../lib/gcc/arm-none-eabi/4.8.3/armv7-m\libgcc.a(_arm_addsubsf3.o)
                                                  C:\Users\Nandi\AppData\Local\V.Micro\Arduino\Builds\sharpmem\Arduino_STM32_mapleMini\sharpmem.cpp.o
__aeabi_idiv0                                     c:/users/nandi/appdata/roaming/arduino15/packages/arduino/tools/arm-none-eabi-gcc/4.8.3-2014q1/bin/../lib/gcc/arm-none-eabi/4.8.3/armv7-m\libgcc.a(_dvmd_tls.o)
__aeabi_l2d                                       c:/users/nandi/appdata/roaming/arduino15/packages/arduino/tools/arm-none-eabi-gcc/4.8.3-2014q1/bin/../lib/gcc/arm-none-eabi/4.8.3/armv7-m\libgcc.a(_arm_addsubdf3.o)
                                                  C:\Users\Nandi\AppData\Local\V.Micro\Arduino\Builds\sharpmem\Arduino_STM32_mapleMini/core.a(Print.cpp.o)
__aeabi_l2f                                       c:/users/nandi/appdata/roaming/arduino15/packages/arduino/tools/arm-none-eabi-gcc/4.8.3-2014q1/bin/../lib/gcc/arm-none-eabi/4.8.3/armv7-m\libgcc.a(_arm_addsubsf3.o)
__aeabi_ldiv0                                     c:/users/nandi/appdata/roaming/arduino15/packages/arduino/tools/arm-none-eabi-gcc/4.8.3-2014q1/bin/../lib/gcc/arm-none-eabi/4.8.3/armv7-m\libgcc.a(_dvmd_tls.o)
                                                  c:/users/nandi/appdata/roaming/arduino15/packages/arduino/tools/arm-none-eabi-gcc/4.8.3-2014q1/bin/../lib/gcc/arm-none-eabi/4.8.3/armv7-m\libgcc.a(_aeabi_uldivmod.o)
__aeabi_ui2d                                      c:/users/nandi/appdata/roaming/arduino15/packages/arduino/tools/arm-none-eabi-gcc/4.8.3-2014q1/bin/../lib/gcc/arm-none-eabi/4.8.3/armv7-m\libgcc.a(_arm_addsubdf3.o)
                                                  c:/users/nandi/appdata/roaming/arduino15/packages/arduino/tools/arm-none-eabi-gcc/4.8.3-2014q1/bin/../lib/gcc/arm-none-eabi/4.8.3/armv7-m\libgcc.a(_fixunsdfdi.o)
__aeabi_ui2f                                      c:/users/nandi/appdata/roaming/arduino15/packages/arduino/tools/arm-none-eabi-gcc/4.8.3-2014q1/bin/../lib/gcc/arm-none-eabi/4.8.3/armv7-m\libgcc.a(_arm_addsubsf3.o)
__aeabi_ul2d                                      c:/users/nandi/appdata/roaming/arduino15/packages/arduino/tools/arm-none-eabi-gcc/4.8.3-2014q1/bin/../lib/gcc/arm-none-eabi/4.8.3/armv7-m\libgcc.a(_arm_addsubdf3.o)
__aeabi_ul2f                                      c:/users/nandi/appdata/roaming/arduino15/packages/arduino/tools/arm-none-eabi-gcc/4.8.3-2014q1/bin/../lib/gcc/arm-none-eabi/4.8.3/armv7-m\libgcc.a(_arm_addsubsf3.o)
__aeabi_uldivmod                                  c:/users/nandi/appdata/roaming/arduino15/packages/arduino/tools/arm-none-eabi-gcc/4.8.3-2014q1/bin/../lib/gcc/arm-none-eabi/4.8.3/armv7-m\libgcc.a(_aeabi_uldivmod.o)
                                                  C:\Users\Nandi\AppData\Local\V.Micro\Arduino\Builds\sharpmem\Arduino_STM32_mapleMini/core.a(Print.cpp.o)
__assert_func                                     C:\Users\Nandi\AppData\Local\V.Micro\Arduino\Builds\sharpmem\Arduino_STM32_mapleMini/core.a(util.c.o)
__bss_end__                                       C:\Users\Nandi\AppData\Local\V.Micro\Arduino\Builds\sharpmem\Arduino_STM32_mapleMini/core.a(start_c.c.o)
                                                  c:/users/nandi/appdata/roaming/arduino15/packages/arduino/tools/arm-none-eabi-gcc/4.8.3-2014q1/bin/../lib/gcc/arm-none-eabi/4.8.3/../../../../arm-none-eabi/lib/armv7-m/crt0.o
__bss_start__                                     C:\Users\Nandi\AppData\Local\V.Micro\Arduino\Builds\sharpmem\Arduino_STM32_mapleMini/core.a(start_c.c.o)
                                                  c:/users/nandi/appdata/roaming/arduino15/packages/arduino/tools/arm-none-eabi-gcc/4.8.3-2014q1/bin/../lib/gcc/arm-none-eabi/4.8.3/../../../../arm-none-eabi/lib/armv7-m/crt0.o
__call_exitprocs                                  c:/users/nandi/appdata/roaming/arduino15/packages/arduino/tools/arm-none-eabi-gcc/4.8.3-2014q1/bin/../lib/gcc/arm-none-eabi/4.8.3/../../../../arm-none-eabi/lib/armv7-m\libc.a(lib_a-__call_atexit.o)
                                                  c:/users/nandi/appdata/roaming/arduino15/packages/arduino/tools/arm-none-eabi-gcc/4.8.3-2014q1/bin/../lib/gcc/arm-none-eabi/4.8.3/../../../../arm-none-eabi/lib/armv7-m\libc.a(lib_a-exit.o)
__cmpdf2                                          c:/users/nandi/appdata/roaming/arduino15/packages/arduino/tools/arm-none-eabi-gcc/4.8.3-2014q1/bin/../lib/gcc/arm-none-eabi/4.8.3/armv7-m\libgcc.a(_arm_cmpdf2.o)
__cmpsf2                                          c:/users/nandi/appdata/roaming/arduino15/packages/arduino/tools/arm-none-eabi-gcc/4.8.3-2014q1/bin/../lib/gcc/arm-none-eabi/4.8.3/armv7-m\libgcc.a(_arm_cmpsf2.o)
__cxa_pure_virtual                                C:\Users\Nandi\AppData\Local\V.Micro\Arduino\Builds\sharpmem\Arduino_STM32_mapleMini/core.a(cxxabi-compat.cpp.o)
                                                  C:\Users\Nandi\AppData\Local\V.Micro\Arduino\Builds\sharpmem\Arduino_STM32_mapleMini/core.a(HardwareSerial.cpp.o)
                                                  C:\Users\Nandi\AppData\Local\V.Micro\Arduino\Builds\sharpmem\Arduino_STM32_mapleMini/core.a(usb_serial.cpp.o)
                                                  C:\Users\Nandi\AppData\Local\V.Micro\Arduino\Builds\sharpmem\Arduino_STM32_mapleMini/core.a(Print.cpp.o)
                                                  C:\Users\Nandi\AppData\Local\V.Micro\Arduino\Builds\sharpmem\Arduino_STM32_mapleMini\Adafruit-GFX-Library-master\Adafruit_GFX.cpp.o
__data_end__                                      C:\Users\Nandi\AppData\Local\V.Micro\Arduino\Builds\sharpmem\Arduino_STM32_mapleMini/core.a(start_c.c.o)
__data_start__                                    C:\Users\Nandi\AppData\Local\V.Micro\Arduino\Builds\sharpmem\Arduino_STM32_mapleMini/core.a(start_c.c.o)
__default_handler                                 C:\Users\Nandi\AppData\Local\V.Micro\Arduino\Builds\sharpmem\Arduino_STM32_mapleMini/core.a(isrs.S.o)
__deregister_frame_info                           c:/users/nandi/appdata/roaming/arduino15/packages/arduino/tools/arm-none-eabi-gcc/4.8.3-2014q1/bin/../lib/gcc/arm-none-eabi/4.8.3/armv7-m/crtbegin.o
__divdf3                                          c:/users/nandi/appdata/roaming/arduino15/packages/arduino/tools/arm-none-eabi-gcc/4.8.3-2014q1/bin/../lib/gcc/arm-none-eabi/4.8.3/armv7-m\libgcc.a(_arm_muldivdf3.o)
__divdi3                                          c:/users/nandi/appdata/roaming/arduino15/packages/arduino/tools/arm-none-eabi-gcc/4.8.3-2014q1/bin/../lib/gcc/arm-none-eabi/4.8.3/armv7-m\libgcc.a(_divdi3.o)
                                                  c:/users/nandi/appdata/roaming/arduino15/packages/arduino/tools/arm-none-eabi-gcc/4.8.3-2014q1/bin/../lib/gcc/arm-none-eabi/4.8.3/armv7-m\libgcc.a(bpabi.o)
__divsf3                                          c:/users/nandi/appdata/roaming/arduino15/packages/arduino/tools/arm-none-eabi-gcc/4.8.3-2014q1/bin/../lib/gcc/arm-none-eabi/4.8.3/armv7-m\libgcc.a(_arm_muldivsf3.o)
__dso_handle                                      c:/users/nandi/appdata/roaming/arduino15/packages/arduino/tools/arm-none-eabi-gcc/4.8.3-2014q1/bin/../lib/gcc/arm-none-eabi/4.8.3/armv7-m/crtbegin.o
__eqdf2                                           c:/users/nandi/appdata/roaming/arduino15/packages/arduino/tools/arm-none-eabi-gcc/4.8.3-2014q1/bin/../lib/gcc/arm-none-eabi/4.8.3/armv7-m\libgcc.a(_arm_cmpdf2.o)
__eqsf2                                           c:/users/nandi/appdata/roaming/arduino15/packages/arduino/tools/arm-none-eabi-gcc/4.8.3-2014q1/bin/../lib/gcc/arm-none-eabi/4.8.3/armv7-m\libgcc.a(_arm_cmpsf2.o)
__error                                           C:\Users\Nandi\AppData\Local\V.Micro\Arduino\Builds\sharpmem\Arduino_STM32_mapleMini/core.a(util.c.o)
                                                  C:\Users\Nandi\AppData\Local\V.Micro\Arduino\Builds\sharpmem\Arduino_STM32_mapleMini/core.a(exc.S.o)
__exc_busfault                                    C:\Users\Nandi\AppData\Local\V.Micro\Arduino\Builds\sharpmem\Arduino_STM32_mapleMini/core.a(exc.S.o)
                                                  C:\Users\Nandi\AppData\Local\V.Micro\Arduino\Builds\sharpmem\Arduino_STM32_mapleMini/core.a(vector_table.S.o)
__exc_debug_monitor                               C:\Users\Nandi\AppData\Local\V.Micro\Arduino\Builds\sharpmem\Arduino_STM32_mapleMini/core.a(isrs.S.o)
                                                  C:\Users\Nandi\AppData\Local\V.Micro\Arduino\Builds\sharpmem\Arduino_STM32_mapleMini/core.a(vector_table.S.o)
__exc_hardfault                                   C:\Users\Nandi\AppData\Local\V.Micro\Arduino\Builds\sharpmem\Arduino_STM32_mapleMini/core.a(exc.S.o)
                                                  C:\Users\Nandi\AppData\Local\V.Micro\Arduino\Builds\sharpmem\Arduino_STM32_mapleMini/core.a(vector_table.S.o)
__exc_memmanage                                   C:\Users\Nandi\AppData\Local\V.Micro\Arduino\Builds\sharpmem\Arduino_STM32_mapleMini/core.a(exc.S.o)
                                                  C:\Users\Nandi\AppData\Local\V.Micro\Arduino\Builds\sharpmem\Arduino_STM32_mapleMini/core.a(vector_table.S.o)
__exc_nmi                                         C:\Users\Nandi\AppData\Local\V.Micro\Arduino\Builds\sharpmem\Arduino_STM32_mapleMini/core.a(exc.S.o)
                                                  C:\Users\Nandi\AppData\Local\V.Micro\Arduino\Builds\sharpmem\Arduino_STM32_mapleMini/core.a(vector_table.S.o)
__exc_pendsv                                      C:\Users\Nandi\AppData\Local\V.Micro\Arduino\Builds\sharpmem\Arduino_STM32_mapleMini/core.a(isrs.S.o)
                                                  C:\Users\Nandi\AppData\Local\V.Micro\Arduino\Builds\sharpmem\Arduino_STM32_mapleMini/core.a(vector_table.S.o)
__exc_reset                                       C:\Users\Nandi\AppData\Local\V.Micro\Arduino\Builds\sharpmem\Arduino_STM32_mapleMini/core.a(vector_table.S.o)
__exc_svc                                         C:\Users\Nandi\AppData\Local\V.Micro\Arduino\Builds\sharpmem\Arduino_STM32_mapleMini/core.a(isrs.S.o)
                                                  C:\Users\Nandi\AppData\Local\V.Micro\Arduino\Builds\sharpmem\Arduino_STM32_mapleMini/core.a(vector_table.S.o)
__exc_systick                                     C:\Users\Nandi\AppData\Local\V.Micro\Arduino\Builds\sharpmem\Arduino_STM32_mapleMini/core.a(systick.c.o)
                                                  C:\Users\Nandi\AppData\Local\V.Micro\Arduino\Builds\sharpmem\Arduino_STM32_mapleMini/core.a(isrs.S.o)
                                                  C:\Users\Nandi\AppData\Local\V.Micro\Arduino\Builds\sharpmem\Arduino_STM32_mapleMini/core.a(vector_table.S.o)
__exc_usagefault                                  C:\Users\Nandi\AppData\Local\V.Micro\Arduino\Builds\sharpmem\Arduino_STM32_mapleMini/core.a(exc.S.o)
                                                  C:\Users\Nandi\AppData\Local\V.Micro\Arduino\Builds\sharpmem\Arduino_STM32_mapleMini/core.a(vector_table.S.o)
__extendsfdf2                                     c:/users/nandi/appdata/roaming/arduino15/packages/arduino/tools/arm-none-eabi-gcc/4.8.3-2014q1/bin/../lib/gcc/arm-none-eabi/4.8.3/armv7-m\libgcc.a(_arm_addsubdf3.o)
__fini_array_end                                  c:/users/nandi/appdata/roaming/arduino15/packages/arduino/tools/arm-none-eabi-gcc/4.8.3-2014q1/bin/../lib/gcc/arm-none-eabi/4.8.3/../../../../arm-none-eabi/lib/armv7-m\libc.a(lib_a-fini.o)
__fini_array_start                                c:/users/nandi/appdata/roaming/arduino15/packages/arduino/tools/arm-none-eabi-gcc/4.8.3-2014q1/bin/../lib/gcc/arm-none-eabi/4.8.3/../../../../arm-none-eabi/lib/armv7-m\libc.a(lib_a-fini.o)
__fixdfdi                                         c:/users/nandi/appdata/roaming/arduino15/packages/arduino/tools/arm-none-eabi-gcc/4.8.3-2014q1/bin/../lib/gcc/arm-none-eabi/4.8.3/armv7-m\libgcc.a(_fixdfdi.o)
__fixdfsi                                         c:/users/nandi/appdata/roaming/arduino15/packages/arduino/tools/arm-none-eabi-gcc/4.8.3-2014q1/bin/../lib/gcc/arm-none-eabi/4.8.3/armv7-m\libgcc.a(_arm_fixdfsi.o)
__fixsfsi                                         c:/users/nandi/appdata/roaming/arduino15/packages/arduino/tools/arm-none-eabi-gcc/4.8.3-2014q1/bin/../lib/gcc/arm-none-eabi/4.8.3/armv7-m\libgcc.a(_arm_fixsfsi.o)
__fixunsdfdi                                      c:/users/nandi/appdata/roaming/arduino15/packages/arduino/tools/arm-none-eabi-gcc/4.8.3-2014q1/bin/../lib/gcc/arm-none-eabi/4.8.3/armv7-m\libgcc.a(_fixunsdfdi.o)
__fixunsdfsi                                      c:/users/nandi/appdata/roaming/arduino15/packages/arduino/tools/arm-none-eabi-gcc/4.8.3-2014q1/bin/../lib/gcc/arm-none-eabi/4.8.3/armv7-m\libgcc.a(_arm_fixunsdfsi.o)
__floatdidf                                       c:/users/nandi/appdata/roaming/arduino15/packages/arduino/tools/arm-none-eabi-gcc/4.8.3-2014q1/bin/../lib/gcc/arm-none-eabi/4.8.3/armv7-m\libgcc.a(_arm_addsubdf3.o)
__floatdisf                                       c:/users/nandi/appdata/roaming/arduino15/packages/arduino/tools/arm-none-eabi-gcc/4.8.3-2014q1/bin/../lib/gcc/arm-none-eabi/4.8.3/armv7-m\libgcc.a(_arm_addsubsf3.o)
__floatsidf                                       c:/users/nandi/appdata/roaming/arduino15/packages/arduino/tools/arm-none-eabi-gcc/4.8.3-2014q1/bin/../lib/gcc/arm-none-eabi/4.8.3/armv7-m\libgcc.a(_arm_addsubdf3.o)
__floatsisf                                       c:/users/nandi/appdata/roaming/arduino15/packages/arduino/tools/arm-none-eabi-gcc/4.8.3-2014q1/bin/../lib/gcc/arm-none-eabi/4.8.3/armv7-m\libgcc.a(_arm_addsubsf3.o)
__floatundidf                                     c:/users/nandi/appdata/roaming/arduino15/packages/arduino/tools/arm-none-eabi-gcc/4.8.3-2014q1/bin/../lib/gcc/arm-none-eabi/4.8.3/armv7-m\libgcc.a(_arm_addsubdf3.o)
__floatundisf                                     c:/users/nandi/appdata/roaming/arduino15/packages/arduino/tools/arm-none-eabi-gcc/4.8.3-2014q1/bin/../lib/gcc/arm-none-eabi/4.8.3/armv7-m\libgcc.a(_arm_addsubsf3.o)
__floatunsidf                                     c:/users/nandi/appdata/roaming/arduino15/packages/arduino/tools/arm-none-eabi-gcc/4.8.3-2014q1/bin/../lib/gcc/arm-none-eabi/4.8.3/armv7-m\libgcc.a(_arm_addsubdf3.o)
__floatunsisf                                     c:/users/nandi/appdata/roaming/arduino15/packages/arduino/tools/arm-none-eabi-gcc/4.8.3-2014q1/bin/../lib/gcc/arm-none-eabi/4.8.3/armv7-m\libgcc.a(_arm_addsubsf3.o)
__gedf2                                           c:/users/nandi/appdata/roaming/arduino15/packages/arduino/tools/arm-none-eabi-gcc/4.8.3-2014q1/bin/../lib/gcc/arm-none-eabi/4.8.3/armv7-m\libgcc.a(_arm_cmpdf2.o)
__gesf2                                           c:/users/nandi/appdata/roaming/arduino15/packages/arduino/tools/arm-none-eabi-gcc/4.8.3-2014q1/bin/../lib/gcc/arm-none-eabi/4.8.3/armv7-m\libgcc.a(_arm_cmpsf2.o)
__gnu_ldivmod_helper                              c:/users/nandi/appdata/roaming/arduino15/packages/arduino/tools/arm-none-eabi-gcc/4.8.3-2014q1/bin/../lib/gcc/arm-none-eabi/4.8.3/armv7-m\libgcc.a(bpabi.o)
__gnu_uldivmod_helper                             c:/users/nandi/appdata/roaming/arduino15/packages/arduino/tools/arm-none-eabi-gcc/4.8.3-2014q1/bin/../lib/gcc/arm-none-eabi/4.8.3/armv7-m\libgcc.a(bpabi.o)
                                                  c:/users/nandi/appdata/roaming/arduino15/packages/arduino/tools/arm-none-eabi-gcc/4.8.3-2014q1/bin/../lib/gcc/arm-none-eabi/4.8.3/armv7-m\libgcc.a(_aeabi_uldivmod.o)
__gtdf2                                           c:/users/nandi/appdata/roaming/arduino15/packages/arduino/tools/arm-none-eabi-gcc/4.8.3-2014q1/bin/../lib/gcc/arm-none-eabi/4.8.3/armv7-m\libgcc.a(_arm_cmpdf2.o)
__gtsf2                                           c:/users/nandi/appdata/roaming/arduino15/packages/arduino/tools/arm-none-eabi-gcc/4.8.3-2014q1/bin/../lib/gcc/arm-none-eabi/4.8.3/armv7-m\libgcc.a(_arm_cmpsf2.o)
__init_array_end                                  c:/users/nandi/appdata/roaming/arduino15/packages/arduino/tools/arm-none-eabi-gcc/4.8.3-2014q1/bin/../lib/gcc/arm-none-eabi/4.8.3/../../../../arm-none-eabi/lib/armv7-m\libc.a(lib_a-init.o)
__init_array_start                                c:/users/nandi/appdata/roaming/arduino15/packages/arduino/tools/arm-none-eabi-gcc/4.8.3-2014q1/bin/../lib/gcc/arm-none-eabi/4.8.3/../../../../arm-none-eabi/lib/armv7-m\libc.a(lib_a-init.o)
__irq_adc                                         C:\Users\Nandi\AppData\Local\V.Micro\Arduino\Builds\sharpmem\Arduino_STM32_mapleMini/core.a(isrs.S.o)
                                                  C:\Users\Nandi\AppData\Local\V.Micro\Arduino\Builds\sharpmem\Arduino_STM32_mapleMini/core.a(vector_table.S.o)
__irq_can_rx1                                     C:\Users\Nandi\AppData\Local\V.Micro\Arduino\Builds\sharpmem\Arduino_STM32_mapleMini/core.a(isrs.S.o)
                                                  C:\Users\Nandi\AppData\Local\V.Micro\Arduino\Builds\sharpmem\Arduino_STM32_mapleMini/core.a(vector_table.S.o)
__irq_can_sce                                     C:\Users\Nandi\AppData\Local\V.Micro\Arduino\Builds\sharpmem\Arduino_STM32_mapleMini/core.a(isrs.S.o)
                                                  C:\Users\Nandi\AppData\Local\V.Micro\Arduino\Builds\sharpmem\Arduino_STM32_mapleMini/core.a(vector_table.S.o)
__irq_dma1_channel1                               C:\Users\Nandi\AppData\Local\V.Micro\Arduino\Builds\sharpmem\Arduino_STM32_mapleMini/core.a(dma_f1.c.o)
                                                  C:\Users\Nandi\AppData\Local\V.Micro\Arduino\Builds\sharpmem\Arduino_STM32_mapleMini/core.a(isrs.S.o)
                                                  C:\Users\Nandi\AppData\Local\V.Micro\Arduino\Builds\sharpmem\Arduino_STM32_mapleMini/core.a(vector_table.S.o)
__irq_dma1_channel2                               C:\Users\Nandi\AppData\Local\V.Micro\Arduino\Builds\sharpmem\Arduino_STM32_mapleMini/core.a(dma_f1.c.o)
                                                  C:\Users\Nandi\AppData\Local\V.Micro\Arduino\Builds\sharpmem\Arduino_STM32_mapleMini/core.a(isrs.S.o)
                                                  C:\Users\Nandi\AppData\Local\V.Micro\Arduino\Builds\sharpmem\Arduino_STM32_mapleMini/core.a(vector_table.S.o)
__irq_dma1_channel3                               C:\Users\Nandi\AppData\Local\V.Micro\Arduino\Builds\sharpmem\Arduino_STM32_mapleMini/core.a(dma_f1.c.o)
                                                  C:\Users\Nandi\AppData\Local\V.Micro\Arduino\Builds\sharpmem\Arduino_STM32_mapleMini/core.a(isrs.S.o)
                                                  C:\Users\Nandi\AppData\Local\V.Micro\Arduino\Builds\sharpmem\Arduino_STM32_mapleMini/core.a(vector_table.S.o)
__irq_dma1_channel4                               C:\Users\Nandi\AppData\Local\V.Micro\Arduino\Builds\sharpmem\Arduino_STM32_mapleMini/core.a(dma_f1.c.o)
                                                  C:\Users\Nandi\AppData\Local\V.Micro\Arduino\Builds\sharpmem\Arduino_STM32_mapleMini/core.a(isrs.S.o)
                                                  C:\Users\Nandi\AppData\Local\V.Micro\Arduino\Builds\sharpmem\Arduino_STM32_mapleMini/core.a(vector_table.S.o)
__irq_dma1_channel5                               C:\Users\Nandi\AppData\Local\V.Micro\Arduino\Builds\sharpmem\Arduino_STM32_mapleMini/core.a(dma_f1.c.o)
                                                  C:\Users\Nandi\AppData\Local\V.Micro\Arduino\Builds\sharpmem\Arduino_STM32_mapleMini/core.a(isrs.S.o)
                                                  C:\Users\Nandi\AppData\Local\V.Micro\Arduino\Builds\sharpmem\Arduino_STM32_mapleMini/core.a(vector_table.S.o)
__irq_dma1_channel6                               C:\Users\Nandi\AppData\Local\V.Micro\Arduino\Builds\sharpmem\Arduino_STM32_mapleMini/core.a(dma_f1.c.o)
                                                  C:\Users\Nandi\AppData\Local\V.Micro\Arduino\Builds\sharpmem\Arduino_STM32_mapleMini/core.a(isrs.S.o)
                                                  C:\Users\Nandi\AppData\Local\V.Micro\Arduino\Builds\sharpmem\Arduino_STM32_mapleMini/core.a(vector_table.S.o)
__irq_dma1_channel7                               C:\Users\Nandi\AppData\Local\V.Micro\Arduino\Builds\sharpmem\Arduino_STM32_mapleMini/core.a(dma_f1.c.o)
                                                  C:\Users\Nandi\AppData\Local\V.Micro\Arduino\Builds\sharpmem\Arduino_STM32_mapleMini/core.a(isrs.S.o)
                                                  C:\Users\Nandi\AppData\Local\V.Micro\Arduino\Builds\sharpmem\Arduino_STM32_mapleMini/core.a(vector_table.S.o)
__irq_exti0                                       C:\Users\Nandi\AppData\Local\V.Micro\Arduino\Builds\sharpmem\Arduino_STM32_mapleMini/core.a(isrs.S.o)
                                                  C:\Users\Nandi\AppData\Local\V.Micro\Arduino\Builds\sharpmem\Arduino_STM32_mapleMini/core.a(vector_table.S.o)
__irq_exti1                                       C:\Users\Nandi\AppData\Local\V.Micro\Arduino\Builds\sharpmem\Arduino_STM32_mapleMini/core.a(isrs.S.o)
                                                  C:\Users\Nandi\AppData\Local\V.Micro\Arduino\Builds\sharpmem\Arduino_STM32_mapleMini/core.a(vector_table.S.o)
__irq_exti15_10                                   C:\Users\Nandi\AppData\Local\V.Micro\Arduino\Builds\sharpmem\Arduino_STM32_mapleMini/core.a(isrs.S.o)
                                                  C:\Users\Nandi\AppData\Local\V.Micro\Arduino\Builds\sharpmem\Arduino_STM32_mapleMini/core.a(vector_table.S.o)
__irq_exti2                                       C:\Users\Nandi\AppData\Local\V.Micro\Arduino\Builds\sharpmem\Arduino_STM32_mapleMini/core.a(isrs.S.o)
                                                  C:\Users\Nandi\AppData\Local\V.Micro\Arduino\Builds\sharpmem\Arduino_STM32_mapleMini/core.a(vector_table.S.o)
__irq_exti3                                       C:\Users\Nandi\AppData\Local\V.Micro\Arduino\Builds\sharpmem\Arduino_STM32_mapleMini/core.a(isrs.S.o)
                                                  C:\Users\Nandi\AppData\Local\V.Micro\Arduino\Builds\sharpmem\Arduino_STM32_mapleMini/core.a(vector_table.S.o)
__irq_exti4                                       C:\Users\Nandi\AppData\Local\V.Micro\Arduino\Builds\sharpmem\Arduino_STM32_mapleMini/core.a(isrs.S.o)
                                                  C:\Users\Nandi\AppData\Local\V.Micro\Arduino\Builds\sharpmem\Arduino_STM32_mapleMini/core.a(vector_table.S.o)
__irq_exti9_5                                     C:\Users\Nandi\AppData\Local\V.Micro\Arduino\Builds\sharpmem\Arduino_STM32_mapleMini/core.a(isrs.S.o)
                                                  C:\Users\Nandi\AppData\Local\V.Micro\Arduino\Builds\sharpmem\Arduino_STM32_mapleMini/core.a(vector_table.S.o)
__irq_flash                                       C:\Users\Nandi\AppData\Local\V.Micro\Arduino\Builds\sharpmem\Arduino_STM32_mapleMini/core.a(isrs.S.o)
                                                  C:\Users\Nandi\AppData\Local\V.Micro\Arduino\Builds\sharpmem\Arduino_STM32_mapleMini/core.a(vector_table.S.o)
__irq_i2c1_er                                     C:\Users\Nandi\AppData\Local\V.Micro\Arduino\Builds\sharpmem\Arduino_STM32_mapleMini/core.a(isrs.S.o)
                                                  C:\Users\Nandi\AppData\Local\V.Micro\Arduino\Builds\sharpmem\Arduino_STM32_mapleMini/core.a(vector_table.S.o)
__irq_i2c1_ev                                     C:\Users\Nandi\AppData\Local\V.Micro\Arduino\Builds\sharpmem\Arduino_STM32_mapleMini/core.a(isrs.S.o)
                                                  C:\Users\Nandi\AppData\Local\V.Micro\Arduino\Builds\sharpmem\Arduino_STM32_mapleMini/core.a(vector_table.S.o)
__irq_i2c2_er                                     C:\Users\Nandi\AppData\Local\V.Micro\Arduino\Builds\sharpmem\Arduino_STM32_mapleMini/core.a(isrs.S.o)
                                                  C:\Users\Nandi\AppData\Local\V.Micro\Arduino\Builds\sharpmem\Arduino_STM32_mapleMini/core.a(vector_table.S.o)
__irq_i2c2_ev                                     C:\Users\Nandi\AppData\Local\V.Micro\Arduino\Builds\sharpmem\Arduino_STM32_mapleMini/core.a(isrs.S.o)
                                                  C:\Users\Nandi\AppData\Local\V.Micro\Arduino\Builds\sharpmem\Arduino_STM32_mapleMini/core.a(vector_table.S.o)
__irq_pvd                                         C:\Users\Nandi\AppData\Local\V.Micro\Arduino\Builds\sharpmem\Arduino_STM32_mapleMini/core.a(isrs.S.o)
                                                  C:\Users\Nandi\AppData\Local\V.Micro\Arduino\Builds\sharpmem\Arduino_STM32_mapleMini/core.a(vector_table.S.o)
__irq_rcc                                         C:\Users\Nandi\AppData\Local\V.Micro\Arduino\Builds\sharpmem\Arduino_STM32_mapleMini/core.a(isrs.S.o)
                                                  C:\Users\Nandi\AppData\Local\V.Micro\Arduino\Builds\sharpmem\Arduino_STM32_mapleMini/core.a(vector_table.S.o)
__irq_rtc                                         C:\Users\Nandi\AppData\Local\V.Micro\Arduino\Builds\sharpmem\Arduino_STM32_mapleMini/core.a(isrs.S.o)
                                                  C:\Users\Nandi\AppData\Local\V.Micro\Arduino\Builds\sharpmem\Arduino_STM32_mapleMini/core.a(vector_table.S.o)
__irq_rtcalarm                                    C:\Users\Nandi\AppData\Local\V.Micro\Arduino\Builds\sharpmem\Arduino_STM32_mapleMini/core.a(isrs.S.o)
                                                  C:\Users\Nandi\AppData\Local\V.Micro\Arduino\Builds\sharpmem\Arduino_STM32_mapleMini/core.a(vector_table.S.o)
__irq_spi1                                        C:\Users\Nandi\AppData\Local\V.Micro\Arduino\Builds\sharpmem\Arduino_STM32_mapleMini/core.a(isrs.S.o)
                                                  C:\Users\Nandi\AppData\Local\V.Micro\Arduino\Builds\sharpmem\Arduino_STM32_mapleMini/core.a(vector_table.S.o)
__irq_spi2                                        C:\Users\Nandi\AppData\Local\V.Micro\Arduino\Builds\sharpmem\Arduino_STM32_mapleMini/core.a(isrs.S.o)
                                                  C:\Users\Nandi\AppData\Local\V.Micro\Arduino\Builds\sharpmem\Arduino_STM32_mapleMini/core.a(vector_table.S.o)
__irq_tamper                                      C:\Users\Nandi\AppData\Local\V.Micro\Arduino\Builds\sharpmem\Arduino_STM32_mapleMini/core.a(isrs.S.o)
                                                  C:\Users\Nandi\AppData\Local\V.Micro\Arduino\Builds\sharpmem\Arduino_STM32_mapleMini/core.a(vector_table.S.o)
__irq_tim1_brk                                    C:\Users\Nandi\AppData\Local\V.Micro\Arduino\Builds\sharpmem\Arduino_STM32_mapleMini/core.a(timer.c.o)
                                                  C:\Users\Nandi\AppData\Local\V.Micro\Arduino\Builds\sharpmem\Arduino_STM32_mapleMini/core.a(isrs.S.o)
                                                  C:\Users\Nandi\AppData\Local\V.Micro\Arduino\Builds\sharpmem\Arduino_STM32_mapleMini/core.a(vector_table.S.o)
__irq_tim1_cc                                     C:\Users\Nandi\AppData\Local\V.Micro\Arduino\Builds\sharpmem\Arduino_STM32_mapleMini/core.a(timer.c.o)
                                                  C:\Users\Nandi\AppData\Local\V.Micro\Arduino\Builds\sharpmem\Arduino_STM32_mapleMini/core.a(isrs.S.o)
                                                  C:\Users\Nandi\AppData\Local\V.Micro\Arduino\Builds\sharpmem\Arduino_STM32_mapleMini/core.a(vector_table.S.o)
__irq_tim1_trg_com                                C:\Users\Nandi\AppData\Local\V.Micro\Arduino\Builds\sharpmem\Arduino_STM32_mapleMini/core.a(timer.c.o)
                                                  C:\Users\Nandi\AppData\Local\V.Micro\Arduino\Builds\sharpmem\Arduino_STM32_mapleMini/core.a(isrs.S.o)
                                                  C:\Users\Nandi\AppData\Local\V.Micro\Arduino\Builds\sharpmem\Arduino_STM32_mapleMini/core.a(vector_table.S.o)
__irq_tim1_up                                     C:\Users\Nandi\AppData\Local\V.Micro\Arduino\Builds\sharpmem\Arduino_STM32_mapleMini/core.a(timer.c.o)
                                                  C:\Users\Nandi\AppData\Local\V.Micro\Arduino\Builds\sharpmem\Arduino_STM32_mapleMini/core.a(isrs.S.o)
                                                  C:\Users\Nandi\AppData\Local\V.Micro\Arduino\Builds\sharpmem\Arduino_STM32_mapleMini/core.a(vector_table.S.o)
__irq_tim2                                        C:\Users\Nandi\AppData\Local\V.Micro\Arduino\Builds\sharpmem\Arduino_STM32_mapleMini/core.a(timer.c.o)
                                                  C:\Users\Nandi\AppData\Local\V.Micro\Arduino\Builds\sharpmem\Arduino_STM32_mapleMini/core.a(vector_table.S.o)
__irq_tim3                                        C:\Users\Nandi\AppData\Local\V.Micro\Arduino\Builds\sharpmem\Arduino_STM32_mapleMini/core.a(timer.c.o)
                                                  C:\Users\Nandi\AppData\Local\V.Micro\Arduino\Builds\sharpmem\Arduino_STM32_mapleMini/core.a(vector_table.S.o)
__irq_tim4                                        C:\Users\Nandi\AppData\Local\V.Micro\Arduino\Builds\sharpmem\Arduino_STM32_mapleMini/core.a(timer.c.o)
                                                  C:\Users\Nandi\AppData\Local\V.Micro\Arduino\Builds\sharpmem\Arduino_STM32_mapleMini/core.a(vector_table.S.o)
__irq_usart1                                      C:\Users\Nandi\AppData\Local\V.Micro\Arduino\Builds\sharpmem\Arduino_STM32_mapleMini/core.a(usart_f1.c.o)
                                                  C:\Users\Nandi\AppData\Local\V.Micro\Arduino\Builds\sharpmem\Arduino_STM32_mapleMini/core.a(isrs.S.o)
                                                  C:\Users\Nandi\AppData\Local\V.Micro\Arduino\Builds\sharpmem\Arduino_STM32_mapleMini/core.a(vector_table.S.o)
__irq_usart2                                      C:\Users\Nandi\AppData\Local\V.Micro\Arduino\Builds\sharpmem\Arduino_STM32_mapleMini/core.a(usart_f1.c.o)
                                                  C:\Users\Nandi\AppData\Local\V.Micro\Arduino\Builds\sharpmem\Arduino_STM32_mapleMini/core.a(isrs.S.o)
                                                  C:\Users\Nandi\AppData\Local\V.Micro\Arduino\Builds\sharpmem\Arduino_STM32_mapleMini/core.a(vector_table.S.o)
__irq_usart3                                      C:\Users\Nandi\AppData\Local\V.Micro\Arduino\Builds\sharpmem\Arduino_STM32_mapleMini/core.a(usart_f1.c.o)
                                                  C:\Users\Nandi\AppData\Local\V.Micro\Arduino\Builds\sharpmem\Arduino_STM32_mapleMini/core.a(isrs.S.o)
                                                  C:\Users\Nandi\AppData\Local\V.Micro\Arduino\Builds\sharpmem\Arduino_STM32_mapleMini/core.a(vector_table.S.o)
__irq_usb_hp_can_tx                               C:\Users\Nandi\AppData\Local\V.Micro\Arduino\Builds\sharpmem\Arduino_STM32_mapleMini/core.a(isrs.S.o)
                                                  C:\Users\Nandi\AppData\Local\V.Micro\Arduino\Builds\sharpmem\Arduino_STM32_mapleMini/core.a(vector_table.S.o)
__irq_usb_lp_can_rx0                              C:\Users\Nandi\AppData\Local\V.Micro\Arduino\Builds\sharpmem\Arduino_STM32_mapleMini/core.a(usb.c.o)
                                                  C:\Users\Nandi\AppData\Local\V.Micro\Arduino\Builds\sharpmem\Arduino_STM32_mapleMini/core.a(isrs.S.o)
                                                  C:\Users\Nandi\AppData\Local\V.Micro\Arduino\Builds\sharpmem\Arduino_STM32_mapleMini/core.a(vector_table.S.o)
__irq_usbwakeup                                   C:\Users\Nandi\AppData\Local\V.Micro\Arduino\Builds\sharpmem\Arduino_STM32_mapleMini/core.a(isrs.S.o)
                                                  C:\Users\Nandi\AppData\Local\V.Micro\Arduino\Builds\sharpmem\Arduino_STM32_mapleMini/core.a(vector_table.S.o)
__irq_wwdg                                        C:\Users\Nandi\AppData\Local\V.Micro\Arduino\Builds\sharpmem\Arduino_STM32_mapleMini/core.a(isrs.S.o)
                                                  C:\Users\Nandi\AppData\Local\V.Micro\Arduino\Builds\sharpmem\Arduino_STM32_mapleMini/core.a(vector_table.S.o)
__ledf2                                           c:/users/nandi/appdata/roaming/arduino15/packages/arduino/tools/arm-none-eabi-gcc/4.8.3-2014q1/bin/../lib/gcc/arm-none-eabi/4.8.3/armv7-m\libgcc.a(_arm_cmpdf2.o)
__lesf2                                           c:/users/nandi/appdata/roaming/arduino15/packages/arduino/tools/arm-none-eabi-gcc/4.8.3-2014q1/bin/../lib/gcc/arm-none-eabi/4.8.3/armv7-m\libgcc.a(_arm_cmpsf2.o)
__libc_fini                                       c:/users/nandi/appdata/roaming/arduino15/packages/arduino/tools/arm-none-eabi-gcc/4.8.3-2014q1/bin/../lib/gcc/arm-none-eabi/4.8.3/../../../../arm-none-eabi/lib/armv7-m\libc.a(lib_a-__call_atexit.o)
__libc_fini_array                                 c:/users/nandi/appdata/roaming/arduino15/packages/arduino/tools/arm-none-eabi-gcc/4.8.3-2014q1/bin/../lib/gcc/arm-none-eabi/4.8.3/../../../../arm-none-eabi/lib/armv7-m\libc.a(lib_a-fini.o)
                                                  c:/users/nandi/appdata/roaming/arduino15/packages/arduino/tools/arm-none-eabi-gcc/4.8.3-2014q1/bin/../lib/gcc/arm-none-eabi/4.8.3/../../../../arm-none-eabi/lib/armv7-m\libc.a(lib_a-__call_atexit.o)
                                                  c:/users/nandi/appdata/roaming/arduino15/packages/arduino/tools/arm-none-eabi-gcc/4.8.3-2014q1/bin/../lib/gcc/arm-none-eabi/4.8.3/../../../../arm-none-eabi/lib/armv7-m/crt0.o
__libc_init_array                                 c:/users/nandi/appdata/roaming/arduino15/packages/arduino/tools/arm-none-eabi-gcc/4.8.3-2014q1/bin/../lib/gcc/arm-none-eabi/4.8.3/../../../../arm-none-eabi/lib/armv7-m\libc.a(lib_a-init.o)
                                                  C:\Users\Nandi\AppData\Local\V.Micro\Arduino\Builds\sharpmem\Arduino_STM32_mapleMini/core.a(start_c.c.o)
                                                  c:/users/nandi/appdata/roaming/arduino15/packages/arduino/tools/arm-none-eabi-gcc/4.8.3-2014q1/bin/../lib/gcc/arm-none-eabi/4.8.3/../../../../arm-none-eabi/lib/armv7-m/crt0.o
__lm_enable_error_usart                           C:\Users\Nandi\AppData\Local\V.Micro\Arduino\Builds\sharpmem\Arduino_STM32_mapleMini/core.a(util.c.o)
__lm_error                                        C:\Users\Nandi\AppData\Local\V.Micro\Arduino\Builds\sharpmem\Arduino_STM32_mapleMini/core.a(util.c.o)
__ltdf2                                           c:/users/nandi/appdata/roaming/arduino15/packages/arduino/tools/arm-none-eabi-gcc/4.8.3-2014q1/bin/../lib/gcc/arm-none-eabi/4.8.3/armv7-m\libgcc.a(_arm_cmpdf2.o)
__ltsf2                                           c:/users/nandi/appdata/roaming/arduino15/packages/arduino/tools/arm-none-eabi-gcc/4.8.3-2014q1/bin/../lib/gcc/arm-none-eabi/4.8.3/armv7-m\libgcc.a(_arm_cmpsf2.o)
__msp_init                                        C:\Users\Nandi\AppData\Local\V.Micro\Arduino\Builds\sharpmem\Arduino_STM32_mapleMini/core.a(start.S.o)
                                                  C:\Users\Nandi\AppData\Local\V.Micro\Arduino\Builds\sharpmem\Arduino_STM32_mapleMini/core.a(vector_table.S.o)
__muldf3                                          c:/users/nandi/appdata/roaming/arduino15/packages/arduino/tools/arm-none-eabi-gcc/4.8.3-2014q1/bin/../lib/gcc/arm-none-eabi/4.8.3/armv7-m\libgcc.a(_arm_muldivdf3.o)
__mulsf3                                          c:/users/nandi/appdata/roaming/arduino15/packages/arduino/tools/arm-none-eabi-gcc/4.8.3-2014q1/bin/../lib/gcc/arm-none-eabi/4.8.3/armv7-m\libgcc.a(_arm_muldivsf3.o)
__nedf2                                           c:/users/nandi/appdata/roaming/arduino15/packages/arduino/tools/arm-none-eabi-gcc/4.8.3-2014q1/bin/../lib/gcc/arm-none-eabi/4.8.3/armv7-m\libgcc.a(_arm_cmpdf2.o)
__nesf2                                           c:/users/nandi/appdata/roaming/arduino15/packages/arduino/tools/arm-none-eabi-gcc/4.8.3-2014q1/bin/../lib/gcc/arm-none-eabi/4.8.3/armv7-m\libgcc.a(_arm_cmpsf2.o)
__preinit_array_end                               c:/users/nandi/appdata/roaming/arduino15/packages/arduino/tools/arm-none-eabi-gcc/4.8.3-2014q1/bin/../lib/gcc/arm-none-eabi/4.8.3/../../../../arm-none-eabi/lib/armv7-m\libc.a(lib_a-init.o)
__preinit_array_start                             c:/users/nandi/appdata/roaming/arduino15/packages/arduino/tools/arm-none-eabi-gcc/4.8.3-2014q1/bin/../lib/gcc/arm-none-eabi/4.8.3/../../../../arm-none-eabi/lib/armv7-m\libc.a(lib_a-init.o)
__register_exitproc                               c:/users/nandi/appdata/roaming/arduino15/packages/arduino/tools/arm-none-eabi-gcc/4.8.3-2014q1/bin/../lib/gcc/arm-none-eabi/4.8.3/../../../../arm-none-eabi/lib/armv7-m\libc.a(lib_a-__atexit.o)
                                                  c:/users/nandi/appdata/roaming/arduino15/packages/arduino/tools/arm-none-eabi-gcc/4.8.3-2014q1/bin/../lib/gcc/arm-none-eabi/4.8.3/../../../../arm-none-eabi/lib/armv7-m\libc.a(lib_a-atexit.o)
__register_frame_info                             c:/users/nandi/appdata/roaming/arduino15/packages/arduino/tools/arm-none-eabi-gcc/4.8.3-2014q1/bin/../lib/gcc/arm-none-eabi/4.8.3/armv7-m/crtbegin.o
__stack                                           c:/users/nandi/appdata/roaming/arduino15/packages/arduino/tools/arm-none-eabi-gcc/4.8.3-2014q1/bin/../lib/gcc/arm-none-eabi/4.8.3/../../../../arm-none-eabi/lib/armv7-m/crt0.o
__start__                                         C:\Users\Nandi\AppData\Local\V.Micro\Arduino\Builds\sharpmem\Arduino_STM32_mapleMini/core.a(start.S.o)
__stm32_vector_table                              C:\Users\Nandi\AppData\Local\V.Micro\Arduino\Builds\sharpmem\Arduino_STM32_mapleMini/core.a(vector_table.S.o)
__stm32reservedexception10                        C:\Users\Nandi\AppData\Local\V.Micro\Arduino\Builds\sharpmem\Arduino_STM32_mapleMini/core.a(isrs.S.o)
                                                  C:\Users\Nandi\AppData\Local\V.Micro\Arduino\Builds\sharpmem\Arduino_STM32_mapleMini/core.a(vector_table.S.o)
__stm32reservedexception13                        C:\Users\Nandi\AppData\Local\V.Micro\Arduino\Builds\sharpmem\Arduino_STM32_mapleMini/core.a(isrs.S.o)
                                                  C:\Users\Nandi\AppData\Local\V.Micro\Arduino\Builds\sharpmem\Arduino_STM32_mapleMini/core.a(vector_table.S.o)
__stm32reservedexception7                         C:\Users\Nandi\AppData\Local\V.Micro\Arduino\Builds\sharpmem\Arduino_STM32_mapleMini/core.a(isrs.S.o)
                                                  C:\Users\Nandi\AppData\Local\V.Micro\Arduino\Builds\sharpmem\Arduino_STM32_mapleMini/core.a(vector_table.S.o)
__stm32reservedexception8                         C:\Users\Nandi\AppData\Local\V.Micro\Arduino\Builds\sharpmem\Arduino_STM32_mapleMini/core.a(isrs.S.o)
                                                  C:\Users\Nandi\AppData\Local\V.Micro\Arduino\Builds\sharpmem\Arduino_STM32_mapleMini/core.a(vector_table.S.o)
__stm32reservedexception9                         C:\Users\Nandi\AppData\Local\V.Micro\Arduino\Builds\sharpmem\Arduino_STM32_mapleMini/core.a(isrs.S.o)
                                                  C:\Users\Nandi\AppData\Local\V.Micro\Arduino\Builds\sharpmem\Arduino_STM32_mapleMini/core.a(vector_table.S.o)
__subdf3                                          c:/users/nandi/appdata/roaming/arduino15/packages/arduino/tools/arm-none-eabi-gcc/4.8.3-2014q1/bin/../lib/gcc/arm-none-eabi/4.8.3/armv7-m\libgcc.a(_arm_addsubdf3.o)
__subsf3                                          c:/users/nandi/appdata/roaming/arduino15/packages/arduino/tools/arm-none-eabi-gcc/4.8.3-2014q1/bin/../lib/gcc/arm-none-eabi/4.8.3/armv7-m\libgcc.a(_arm_addsubsf3.o)
__truncdfsf2                                      c:/users/nandi/appdata/roaming/arduino15/packages/arduino/tools/arm-none-eabi-gcc/4.8.3-2014q1/bin/../lib/gcc/arm-none-eabi/4.8.3/armv7-m\libgcc.a(_arm_truncdfsf2.o)
__udivdi3                                         c:/users/nandi/appdata/roaming/arduino15/packages/arduino/tools/arm-none-eabi-gcc/4.8.3-2014q1/bin/../lib/gcc/arm-none-eabi/4.8.3/armv7-m\libgcc.a(_udivdi3.o)
                                                  c:/users/nandi/appdata/roaming/arduino15/packages/arduino/tools/arm-none-eabi-gcc/4.8.3-2014q1/bin/../lib/gcc/arm-none-eabi/4.8.3/armv7-m\libgcc.a(bpabi.o)
_dma_addr_type                                    C:\Users\Nandi\AppData\Local\V.Micro\Arduino\Builds\sharpmem\Arduino_STM32_mapleMini/core.a(dma.c.o)
                                                  C:\Users\Nandi\AppData\Local\V.Micro\Arduino\Builds\sharpmem\Arduino_STM32_mapleMini/core.a(dma_f1.c.o)
_exit                                             c:/users/nandi/appdata/roaming/arduino15/packages/arduino/tools/arm-none-eabi-gcc/4.8.3-2014q1/bin/../lib/gcc/arm-none-eabi/4.8.3/../../../../arm-none-eabi/lib/armv7-m\libnosys.a(_exit.o)
                                                  c:/users/nandi/appdata/roaming/arduino15/packages/arduino/tools/arm-none-eabi-gcc/4.8.3-2014q1/bin/../lib/gcc/arm-none-eabi/4.8.3/../../../../arm-none-eabi/lib/armv7-m\libc.a(lib_a-exit.o)
_fail                                             C:\Users\Nandi\AppData\Local\V.Micro\Arduino\Builds\sharpmem\Arduino_STM32_mapleMini/core.a(util.c.o)
_fini                                             c:/users/nandi/appdata/roaming/arduino15/packages/arduino/tools/arm-none-eabi-gcc/4.8.3-2014q1/bin/../lib/gcc/arm-none-eabi/4.8.3/armv7-m/crti.o
                                                  c:/users/nandi/appdata/roaming/arduino15/packages/arduino/tools/arm-none-eabi-gcc/4.8.3-2014q1/bin/../lib/gcc/arm-none-eabi/4.8.3/../../../../arm-none-eabi/lib/armv7-m\libc.a(lib_a-fini.o)
_global_impure_ptr                                c:/users/nandi/appdata/roaming/arduino15/packages/arduino/tools/arm-none-eabi-gcc/4.8.3-2014q1/bin/../lib/gcc/arm-none-eabi/4.8.3/../../../../arm-none-eabi/lib/armv7-m\libc.a(lib_a-impure.o)
                                                  c:/users/nandi/appdata/roaming/arduino15/packages/arduino/tools/arm-none-eabi-gcc/4.8.3-2014q1/bin/../lib/gcc/arm-none-eabi/4.8.3/../../../../arm-none-eabi/lib/armv7-m\libc.a(lib_a-__atexit.o)
                                                  c:/users/nandi/appdata/roaming/arduino15/packages/arduino/tools/arm-none-eabi-gcc/4.8.3-2014q1/bin/../lib/gcc/arm-none-eabi/4.8.3/../../../../arm-none-eabi/lib/armv7-m\libc.a(lib_a-__call_atexit.o)
                                                  c:/users/nandi/appdata/roaming/arduino15/packages/arduino/tools/arm-none-eabi-gcc/4.8.3-2014q1/bin/../lib/gcc/arm-none-eabi/4.8.3/../../../../arm-none-eabi/lib/armv7-m\libc.a(lib_a-exit.o)
_impure_ptr                                       c:/users/nandi/appdata/roaming/arduino15/packages/arduino/tools/arm-none-eabi-gcc/4.8.3-2014q1/bin/../lib/gcc/arm-none-eabi/4.8.3/../../../../arm-none-eabi/lib/armv7-m\libc.a(lib_a-impure.o)
                                                  c:/users/nandi/appdata/roaming/arduino15/packages/arduino/tools/arm-none-eabi-gcc/4.8.3-2014q1/bin/../lib/gcc/arm-none-eabi/4.8.3/../../../../arm-none-eabi/lib/armv7-m\libc.a(lib_a-rand.o)
_init                                             c:/users/nandi/appdata/roaming/arduino15/packages/arduino/tools/arm-none-eabi-gcc/4.8.3-2014q1/bin/../lib/gcc/arm-none-eabi/4.8.3/armv7-m/crti.o
                                                  c:/users/nandi/appdata/roaming/arduino15/packages/arduino/tools/arm-none-eabi-gcc/4.8.3-2014q1/bin/../lib/gcc/arm-none-eabi/4.8.3/../../../../arm-none-eabi/lib/armv7-m\libc.a(lib_a-init.o)
_lm_rom_img_cfgp                                  C:\Users\Nandi\AppData\Local\V.Micro\Arduino\Builds\sharpmem\Arduino_STM32_mapleMini/core.a(start_c.c.o)
_mainCRTStartup                                   c:/users/nandi/appdata/roaming/arduino15/packages/arduino/tools/arm-none-eabi-gcc/4.8.3-2014q1/bin/../lib/gcc/arm-none-eabi/4.8.3/../../../../arm-none-eabi/lib/armv7-m/crt0.o
_start                                            c:/users/nandi/appdata/roaming/arduino15/packages/arduino/tools/arm-none-eabi-gcc/4.8.3-2014q1/bin/../lib/gcc/arm-none-eabi/4.8.3/../../../../arm-none-eabi/lib/armv7-m/crt0.o
_usart_clock_freq                                 C:\Users\Nandi\AppData\Local\V.Micro\Arduino\Builds\sharpmem\Arduino_STM32_mapleMini/core.a(usart_private.c.o)
                                                  C:\Users\Nandi\AppData\Local\V.Micro\Arduino\Builds\sharpmem\Arduino_STM32_mapleMini/core.a(usart_f1.c.o)
abort                                             C:\Users\Nandi\AppData\Local\V.Micro\Arduino\Builds\sharpmem\Arduino_STM32_mapleMini/core.a(util.c.o)
adc1                                              C:\Users\Nandi\AppData\Local\V.Micro\Arduino\Builds\sharpmem\Arduino_STM32_mapleMini/core.a(adc_f1.c.o)
                                                  C:\Users\Nandi\AppData\Local\V.Micro\Arduino\Builds\sharpmem\Arduino_STM32_mapleMini/core.a(board.cpp.o)
adc2                                              C:\Users\Nandi\AppData\Local\V.Micro\Arduino\Builds\sharpmem\Arduino_STM32_mapleMini/core.a(adc_f1.c.o)
adc_calibrate                                     C:\Users\Nandi\AppData\Local\V.Micro\Arduino\Builds\sharpmem\Arduino_STM32_mapleMini/core.a(adc_f1.c.o)
adc_config_gpio                                   C:\Users\Nandi\AppData\Local\V.Micro\Arduino\Builds\sharpmem\Arduino_STM32_mapleMini/core.a(adc_f1.c.o)
adc_enable_single_swstart                         C:\Users\Nandi\AppData\Local\V.Micro\Arduino\Builds\sharpmem\Arduino_STM32_mapleMini/core.a(adc_f1.c.o)
                                                  C:\Users\Nandi\AppData\Local\V.Micro\Arduino\Builds\sharpmem\Arduino_STM32_mapleMini/core.a(boards.cpp.o)
adc_foreach                                       C:\Users\Nandi\AppData\Local\V.Micro\Arduino\Builds\sharpmem\Arduino_STM32_mapleMini/core.a(adc_f1.c.o)
                                                  C:\Users\Nandi\AppData\Local\V.Micro\Arduino\Builds\sharpmem\Arduino_STM32_mapleMini/core.a(boards.cpp.o)
adc_init                                          C:\Users\Nandi\AppData\Local\V.Micro\Arduino\Builds\sharpmem\Arduino_STM32_mapleMini/core.a(adc.c.o)
                                                  C:\Users\Nandi\AppData\Local\V.Micro\Arduino\Builds\sharpmem\Arduino_STM32_mapleMini/core.a(adc_f1.c.o)
adc_read                                          C:\Users\Nandi\AppData\Local\V.Micro\Arduino\Builds\sharpmem\Arduino_STM32_mapleMini/core.a(adc.c.o)
adc_set_extsel                                    C:\Users\Nandi\AppData\Local\V.Micro\Arduino\Builds\sharpmem\Arduino_STM32_mapleMini/core.a(adc.c.o)
                                                  C:\Users\Nandi\AppData\Local\V.Micro\Arduino\Builds\sharpmem\Arduino_STM32_mapleMini/core.a(adc_f1.c.o)
adc_set_prescaler                                 C:\Users\Nandi\AppData\Local\V.Micro\Arduino\Builds\sharpmem\Arduino_STM32_mapleMini/core.a(adc_f1.c.o)
                                                  C:\Users\Nandi\AppData\Local\V.Micro\Arduino\Builds\sharpmem\Arduino_STM32_mapleMini/core.a(boards.cpp.o)
adc_set_sample_rate                               C:\Users\Nandi\AppData\Local\V.Micro\Arduino\Builds\sharpmem\Arduino_STM32_mapleMini/core.a(adc.c.o)
                                                  C:\Users\Nandi\AppData\Local\V.Micro\Arduino\Builds\sharpmem\Arduino_STM32_mapleMini/core.a(boards.cpp.o)
afio_init                                         C:\Users\Nandi\AppData\Local\V.Micro\Arduino\Builds\sharpmem\Arduino_STM32_mapleMini/core.a(gpio_f1.c.o)
                                                  C:\Users\Nandi\AppData\Local\V.Micro\Arduino\Builds\sharpmem\Arduino_STM32_mapleMini/core.a(boards_setup.cpp.o)
afio_remap                                        C:\Users\Nandi\AppData\Local\V.Micro\Arduino\Builds\sharpmem\Arduino_STM32_mapleMini/core.a(gpio_f1.c.o)
atexit                                            c:/users/nandi/appdata/roaming/arduino15/packages/arduino/tools/arm-none-eabi-gcc/4.8.3-2014q1/bin/../lib/gcc/arm-none-eabi/4.8.3/../../../../arm-none-eabi/lib/armv7-m\libc.a(lib_a-atexit.o)
                                                  c:/users/nandi/appdata/roaming/arduino15/packages/arduino/tools/arm-none-eabi-gcc/4.8.3-2014q1/bin/../lib/gcc/arm-none-eabi/4.8.3/../../../../arm-none-eabi/lib/armv7-m\libc.a(lib_a-__call_atexit.o)
                                                  c:/users/nandi/appdata/roaming/arduino15/packages/arduino/tools/arm-none-eabi-gcc/4.8.3-2014q1/bin/../lib/gcc/arm-none-eabi/4.8.3/../../../../arm-none-eabi/lib/armv7-m/crt0.o
balls                                             C:\Users\Nandi\AppData\Local\V.Micro\Arduino\Builds\sharpmem\Arduino_STM32_mapleMini\sharpmem.cpp.o
boardADCPins                                      C:\Users\Nandi\AppData\Local\V.Micro\Arduino\Builds\sharpmem\Arduino_STM32_mapleMini/core.a(board.cpp.o)
boardInit()                                       C:\Users\Nandi\AppData\Local\V.Micro\Arduino\Builds\sharpmem\Arduino_STM32_mapleMini/core.a(board.cpp.o)
boardPWMPins                                      C:\Users\Nandi\AppData\Local\V.Micro\Arduino\Builds\sharpmem\Arduino_STM32_mapleMini/core.a(board.cpp.o)
boardUsedPins                                     C:\Users\Nandi\AppData\Local\V.Micro\Arduino\Builds\sharpmem\Arduino_STM32_mapleMini/core.a(board.cpp.o)
                                                  C:\Users\Nandi\AppData\Local\V.Micro\Arduino\Builds\sharpmem\Arduino_STM32_mapleMini/core.a(boards.cpp.o)
boardUsesPin(unsigned char)                       C:\Users\Nandi\AppData\Local\V.Micro\Arduino\Builds\sharpmem\Arduino_STM32_mapleMini/core.a(boards.cpp.o)
delay(unsigned long)                              C:\Users\Nandi\AppData\Local\V.Micro\Arduino\Builds\sharpmem\Arduino_STM32_mapleMini/core.a(wirish_time.cpp.o)
delayMicroseconds(unsigned long)                  C:\Users\Nandi\AppData\Local\V.Micro\Arduino\Builds\sharpmem\Arduino_STM32_mapleMini/core.a(wirish_time.cpp.o)
                                                  C:\Users\Nandi\AppData\Local\V.Micro\Arduino\Builds\sharpmem\Arduino_STM32_mapleMini\SharpMemSTM32.cpp.o
digitalRead(unsigned char)                        C:\Users\Nandi\AppData\Local\V.Micro\Arduino\Builds\sharpmem\Arduino_STM32_mapleMini/core.a(wirish_digital.cpp.o)
digitalWrite(unsigned char, unsigned char)        C:\Users\Nandi\AppData\Local\V.Micro\Arduino\Builds\sharpmem\Arduino_STM32_mapleMini/core.a(wirish_digital.cpp.o)
                                                  C:\Users\Nandi\AppData\Local\V.Micro\Arduino\Builds\sharpmem\Arduino_STM32_mapleMini\SharpMemSTM32.cpp.o
disableDebugPorts()                               C:\Users\Nandi\AppData\Local\V.Micro\Arduino\Builds\sharpmem\Arduino_STM32_mapleMini/core.a(wirish_debug.cpp.o)
                                                  C:\Users\Nandi\AppData\Local\V.Micro\Arduino\Builds\sharpmem\Arduino_STM32_mapleMini/core.a(board.cpp.o)
display                                           C:\Users\Nandi\AppData\Local\V.Micro\Arduino\Builds\sharpmem\Arduino_STM32_mapleMini\sharpmem.cpp.o
dma_attach_interrupt                              C:\Users\Nandi\AppData\Local\V.Micro\Arduino\Builds\sharpmem\Arduino_STM32_mapleMini/core.a(dma_f1.c.o)
dma_detach_interrupt                              C:\Users\Nandi\AppData\Local\V.Micro\Arduino\Builds\sharpmem\Arduino_STM32_mapleMini/core.a(dma_f1.c.o)
dma_disable                                       C:\Users\Nandi\AppData\Local\V.Micro\Arduino\Builds\sharpmem\Arduino_STM32_mapleMini/core.a(dma_f1.c.o)
                                                  C:\Users\Nandi\AppData\Local\V.Micro\Arduino\Builds\sharpmem\Arduino_STM32_mapleMini\SPI\SPI.cpp.o
dma_enable                                        C:\Users\Nandi\AppData\Local\V.Micro\Arduino\Builds\sharpmem\Arduino_STM32_mapleMini/core.a(dma_f1.c.o)
                                                  C:\Users\Nandi\AppData\Local\V.Micro\Arduino\Builds\sharpmem\Arduino_STM32_mapleMini\SPI\SPI.cpp.o
dma_get_irq_cause                                 C:\Users\Nandi\AppData\Local\V.Micro\Arduino\Builds\sharpmem\Arduino_STM32_mapleMini/core.a(dma_f1.c.o)
dma_init                                          C:\Users\Nandi\AppData\Local\V.Micro\Arduino\Builds\sharpmem\Arduino_STM32_mapleMini/core.a(dma.c.o)
                                                  C:\Users\Nandi\AppData\Local\V.Micro\Arduino\Builds\sharpmem\Arduino_STM32_mapleMini\SPI\SPI.cpp.o
dma_set_mem_addr                                  C:\Users\Nandi\AppData\Local\V.Micro\Arduino\Builds\sharpmem\Arduino_STM32_mapleMini/core.a(dma_f1.c.o)
dma_set_num_transfers                             C:\Users\Nandi\AppData\Local\V.Micro\Arduino\Builds\sharpmem\Arduino_STM32_mapleMini/core.a(dma_f1.c.o)
                                                  C:\Users\Nandi\AppData\Local\V.Micro\Arduino\Builds\sharpmem\Arduino_STM32_mapleMini\SPI\SPI.cpp.o
dma_set_per_addr                                  C:\Users\Nandi\AppData\Local\V.Micro\Arduino\Builds\sharpmem\Arduino_STM32_mapleMini/core.a(dma_f1.c.o)
dma_set_priority                                  C:\Users\Nandi\AppData\Local\V.Micro\Arduino\Builds\sharpmem\Arduino_STM32_mapleMini/core.a(dma_f1.c.o)
dma_setup_transfer                                C:\Users\Nandi\AppData\Local\V.Micro\Arduino\Builds\sharpmem\Arduino_STM32_mapleMini/core.a(dma_f1.c.o)
                                                  C:\Users\Nandi\AppData\Local\V.Micro\Arduino\Builds\sharpmem\Arduino_STM32_mapleMini\SPI\SPI.cpp.o
dma_tube_cfg                                      C:\Users\Nandi\AppData\Local\V.Micro\Arduino\Builds\sharpmem\Arduino_STM32_mapleMini/core.a(dma_f1.c.o)
enableDebugPorts()                                C:\Users\Nandi\AppData\Local\V.Micro\Arduino\Builds\sharpmem\Arduino_STM32_mapleMini/core.a(wirish_debug.cpp.o)
exit                                              c:/users/nandi/appdata/roaming/arduino15/packages/arduino/tools/arm-none-eabi-gcc/4.8.3-2014q1/bin/../lib/gcc/arm-none-eabi/4.8.3/../../../../arm-none-eabi/lib/armv7-m\libc.a(lib_a-exit.o)
                                                  C:\Users\Nandi\AppData\Local\V.Micro\Arduino\Builds\sharpmem\Arduino_STM32_mapleMini/core.a(start_c.c.o)
                                                  c:/users/nandi/appdata/roaming/arduino15/packages/arduino/tools/arm-none-eabi-gcc/4.8.3-2014q1/bin/../lib/gcc/arm-none-eabi/4.8.3/../../../../arm-none-eabi/lib/armv7-m/crt0.o
flash_set_latency                                 C:\Users\Nandi\AppData\Local\V.Micro\Arduino\Builds\sharpmem\Arduino_STM32_mapleMini/core.a(flash.c.o)
                                                  C:\Users\Nandi\AppData\Local\V.Micro\Arduino\Builds\sharpmem\Arduino_STM32_mapleMini/core.a(boards.cpp.o)
free                                              c:/users/nandi/appdata/roaming/arduino15/packages/arduino/tools/arm-none-eabi-gcc/4.8.3-2014q1/bin/../lib/gcc/arm-none-eabi/4.8.3/../../../../arm-none-eabi/lib/armv7-m\libc.a(lib_a-__call_atexit.o)
gpio_get_mode                                     C:\Users\Nandi\AppData\Local\V.Micro\Arduino\Builds\sharpmem\Arduino_STM32_mapleMini/core.a(gpio_f1.c.o)
gpio_init                                         C:\Users\Nandi\AppData\Local\V.Micro\Arduino\Builds\sharpmem\Arduino_STM32_mapleMini/core.a(gpio.c.o)
                                                  C:\Users\Nandi\AppData\Local\V.Micro\Arduino\Builds\sharpmem\Arduino_STM32_mapleMini/core.a(gpio_f1.c.o)
gpio_init_all                                     C:\Users\Nandi\AppData\Local\V.Micro\Arduino\Builds\sharpmem\Arduino_STM32_mapleMini/core.a(gpio_f1.c.o)
                                                  C:\Users\Nandi\AppData\Local\V.Micro\Arduino\Builds\sharpmem\Arduino_STM32_mapleMini/core.a(boards_setup.cpp.o)
gpio_set_mode                                     C:\Users\Nandi\AppData\Local\V.Micro\Arduino\Builds\sharpmem\Arduino_STM32_mapleMini/core.a(gpio_f1.c.o)
                                                  C:\Users\Nandi\AppData\Local\V.Micro\Arduino\Builds\sharpmem\Arduino_STM32_mapleMini/core.a(usb_cdcacm.c.o)
                                                  C:\Users\Nandi\AppData\Local\V.Micro\Arduino\Builds\sharpmem\Arduino_STM32_mapleMini/core.a(usart_f1.c.o)
                                                  C:\Users\Nandi\AppData\Local\V.Micro\Arduino\Builds\sharpmem\Arduino_STM32_mapleMini/core.a(adc_f1.c.o)
                                                  C:\Users\Nandi\AppData\Local\V.Micro\Arduino\Builds\sharpmem\Arduino_STM32_mapleMini/core.a(wirish_digital_f1.cpp.o)
                                                  C:\Users\Nandi\AppData\Local\V.Micro\Arduino\Builds\sharpmem\Arduino_STM32_mapleMini/core.a(util.c.o)
                                                  C:\Users\Nandi\AppData\Local\V.Micro\Arduino\Builds\sharpmem\Arduino_STM32_mapleMini/core.a(spi_f1.c.o)
gpioa                                             C:\Users\Nandi\AppData\Local\V.Micro\Arduino\Builds\sharpmem\Arduino_STM32_mapleMini/core.a(gpio_f1.c.o)
                                                  C:\Users\Nandi\AppData\Local\V.Micro\Arduino\Builds\sharpmem\Arduino_STM32_mapleMini/core.a(board.cpp.o)
gpiob                                             C:\Users\Nandi\AppData\Local\V.Micro\Arduino\Builds\sharpmem\Arduino_STM32_mapleMini/core.a(gpio_f1.c.o)
                                                  C:\Users\Nandi\AppData\Local\V.Micro\Arduino\Builds\sharpmem\Arduino_STM32_mapleMini/core.a(board.cpp.o)
gpioc                                             C:\Users\Nandi\AppData\Local\V.Micro\Arduino\Builds\sharpmem\Arduino_STM32_mapleMini/core.a(gpio_f1.c.o)
                                                  C:\Users\Nandi\AppData\Local\V.Micro\Arduino\Builds\sharpmem\Arduino_STM32_mapleMini/core.a(board.cpp.o)
gpiod                                             C:\Users\Nandi\AppData\Local\V.Micro\Arduino\Builds\sharpmem\Arduino_STM32_mapleMini/core.a(gpio_f1.c.o)
hardware_init_hook                                c:/users/nandi/appdata/roaming/arduino15/packages/arduino/tools/arm-none-eabi-gcc/4.8.3-2014q1/bin/../lib/gcc/arm-none-eabi/4.8.3/../../../../arm-none-eabi/lib/armv7-m/crt0.o
init()                                            C:\Users\Nandi\AppData\Local\V.Micro\Arduino\Builds\sharpmem\Arduino_STM32_mapleMini/core.a(boards.cpp.o)
                                                  C:\Users\Nandi\AppData\Local\V.Micro\Arduino\Builds\sharpmem\Arduino_STM32_mapleMini/core.a(main.cpp.o)
iwdg_feed                                         C:\Users\Nandi\AppData\Local\V.Micro\Arduino\Builds\sharpmem\Arduino_STM32_mapleMini/core.a(iwdg.c.o)
iwdg_init                                         C:\Users\Nandi\AppData\Local\V.Micro\Arduino\Builds\sharpmem\Arduino_STM32_mapleMini/core.a(iwdg.c.o)
                                                  C:\Users\Nandi\AppData\Local\V.Micro\Arduino\Builds\sharpmem\Arduino_STM32_mapleMini/core.a(usb_serial.cpp.o)
loop()                                            C:\Users\Nandi\AppData\Local\V.Micro\Arduino\Builds\sharpmem\Arduino_STM32_mapleMini\sharpmem.cpp.o
                                                  C:\Users\Nandi\AppData\Local\V.Micro\Arduino\Builds\sharpmem\Arduino_STM32_mapleMini/core.a(main.cpp.o)
main                                              C:\Users\Nandi\AppData\Local\V.Micro\Arduino\Builds\sharpmem\Arduino_STM32_mapleMini/core.a(main.cpp.o)
                                                  C:\Users\Nandi\AppData\Local\V.Micro\Arduino\Builds\sharpmem\Arduino_STM32_mapleMini/core.a(start_c.c.o)
                                                  c:/users/nandi/appdata/roaming/arduino15/packages/arduino/tools/arm-none-eabi-gcc/4.8.3-2014q1/bin/../lib/gcc/arm-none-eabi/4.8.3/../../../../arm-none-eabi/lib/armv7-m/crt0.o
malloc                                            c:/users/nandi/appdata/roaming/arduino15/packages/arduino/tools/arm-none-eabi-gcc/4.8.3-2014q1/bin/../lib/gcc/arm-none-eabi/4.8.3/../../../../arm-none-eabi/lib/armv7-m\libc.a(lib_a-__atexit.o)
memset                                            c:/users/nandi/appdata/roaming/arduino15/packages/arduino/tools/arm-none-eabi-gcc/4.8.3-2014q1/bin/../lib/gcc/arm-none-eabi/4.8.3/../../../../arm-none-eabi/lib/armv7-m\libc.a(lib_a-memset.o)
                                                  C:\Users\Nandi\AppData\Local\V.Micro\Arduino\Builds\sharpmem\Arduino_STM32_mapleMini\SharpMemSTM32.cpp.o
                                                  c:/users/nandi/appdata/roaming/arduino15/packages/arduino/tools/arm-none-eabi-gcc/4.8.3-2014q1/bin/../lib/gcc/arm-none-eabi/4.8.3/../../../../arm-none-eabi/lib/armv7-m/crt0.o
nvic_init                                         C:\Users\Nandi\AppData\Local\V.Micro\Arduino\Builds\sharpmem\Arduino_STM32_mapleMini/core.a(nvic.c.o)
                                                  C:\Users\Nandi\AppData\Local\V.Micro\Arduino\Builds\sharpmem\Arduino_STM32_mapleMini/core.a(boards.cpp.o)
nvic_irq_set_priority                             C:\Users\Nandi\AppData\Local\V.Micro\Arduino\Builds\sharpmem\Arduino_STM32_mapleMini/core.a(nvic.c.o)
nvic_set_vector_table                             C:\Users\Nandi\AppData\Local\V.Micro\Arduino\Builds\sharpmem\Arduino_STM32_mapleMini/core.a(nvic.c.o)
nvic_sys_reset                                    C:\Users\Nandi\AppData\Local\V.Micro\Arduino\Builds\sharpmem\Arduino_STM32_mapleMini/core.a(nvic.c.o)
                                                  C:\Users\Nandi\AppData\Local\V.Micro\Arduino\Builds\sharpmem\Arduino_STM32_mapleMini/core.a(usb_serial.cpp.o)
p                                                 C:\Users\Nandi\AppData\Local\V.Micro\Arduino\Builds\sharpmem\Arduino_STM32_mapleMini\sharpmem.cpp.o
pInformation                                      C:\Users\Nandi\AppData\Local\V.Micro\Arduino\Builds\sharpmem\Arduino_STM32_mapleMini/core.a(usb_init.c.o)
                                                  C:\Users\Nandi\AppData\Local\V.Micro\Arduino\Builds\sharpmem\Arduino_STM32_mapleMini/core.a(usb_core.c.o)
                                                  C:\Users\Nandi\AppData\Local\V.Micro\Arduino\Builds\sharpmem\Arduino_STM32_mapleMini/core.a(usb_cdcacm.c.o)
                                                  C:\Users\Nandi\AppData\Local\V.Micro\Arduino\Builds\sharpmem\Arduino_STM32_mapleMini/core.a(usb.c.o)
pProperty                                         C:\Users\Nandi\AppData\Local\V.Micro\Arduino\Builds\sharpmem\Arduino_STM32_mapleMini/core.a(usb_init.c.o)
                                                  C:\Users\Nandi\AppData\Local\V.Micro\Arduino\Builds\sharpmem\Arduino_STM32_mapleMini/core.a(usb_core.c.o)
                                                  C:\Users\Nandi\AppData\Local\V.Micro\Arduino\Builds\sharpmem\Arduino_STM32_mapleMini/core.a(usb_cdcacm.c.o)
                                                  C:\Users\Nandi\AppData\Local\V.Micro\Arduino\Builds\sharpmem\Arduino_STM32_mapleMini/core.a(usb.c.o)
pUser_Standard_Requests                           C:\Users\Nandi\AppData\Local\V.Micro\Arduino\Builds\sharpmem\Arduino_STM32_mapleMini/core.a(usb_init.c.o)
                                                  C:\Users\Nandi\AppData\Local\V.Micro\Arduino\Builds\sharpmem\Arduino_STM32_mapleMini/core.a(usb_core.c.o)
                                                  C:\Users\Nandi\AppData\Local\V.Micro\Arduino\Builds\sharpmem\Arduino_STM32_mapleMini/core.a(usb.c.o)
pinMode(unsigned char, WiringPinMode)             C:\Users\Nandi\AppData\Local\V.Micro\Arduino\Builds\sharpmem\Arduino_STM32_mapleMini/core.a(wirish_digital_f1.cpp.o)
                                                  C:\Users\Nandi\AppData\Local\V.Micro\Arduino\Builds\sharpmem\Arduino_STM32_mapleMini\SharpMemSTM32.cpp.o
premain()                                         C:\Users\Nandi\AppData\Local\V.Micro\Arduino\Builds\sharpmem\Arduino_STM32_mapleMini/core.a(main.cpp.o)
rand                                              c:/users/nandi/appdata/roaming/arduino15/packages/arduino/tools/arm-none-eabi-gcc/4.8.3-2014q1/bin/../lib/gcc/arm-none-eabi/4.8.3/../../../../arm-none-eabi/lib/armv7-m\libc.a(lib_a-rand.o)
                                                  C:\Users\Nandi\AppData\Local\V.Micro\Arduino\Builds\sharpmem\Arduino_STM32_mapleMini\sharpmem.cpp.o
rcc_clk_disable                                   C:\Users\Nandi\AppData\Local\V.Micro\Arduino\Builds\sharpmem\Arduino_STM32_mapleMini/core.a(rcc_f1.c.o)
                                                  C:\Users\Nandi\AppData\Local\V.Micro\Arduino\Builds\sharpmem\Arduino_STM32_mapleMini/core.a(boards_setup.cpp.o)
rcc_clk_enable                                    C:\Users\Nandi\AppData\Local\V.Micro\Arduino\Builds\sharpmem\Arduino_STM32_mapleMini/core.a(rcc_f1.c.o)
                                                  C:\Users\Nandi\AppData\Local\V.Micro\Arduino\Builds\sharpmem\Arduino_STM32_mapleMini/core.a(gpio.c.o)
                                                  C:\Users\Nandi\AppData\Local\V.Micro\Arduino\Builds\sharpmem\Arduino_STM32_mapleMini/core.a(usb.c.o)
                                                  C:\Users\Nandi\AppData\Local\V.Micro\Arduino\Builds\sharpmem\Arduino_STM32_mapleMini/core.a(usart.c.o)
                                                  C:\Users\Nandi\AppData\Local\V.Micro\Arduino\Builds\sharpmem\Arduino_STM32_mapleMini/core.a(gpio_f1.c.o)
                                                  C:\Users\Nandi\AppData\Local\V.Micro\Arduino\Builds\sharpmem\Arduino_STM32_mapleMini/core.a(adc.c.o)
                                                  C:\Users\Nandi\AppData\Local\V.Micro\Arduino\Builds\sharpmem\Arduino_STM32_mapleMini/core.a(timer.c.o)
                                                  C:\Users\Nandi\AppData\Local\V.Micro\Arduino\Builds\sharpmem\Arduino_STM32_mapleMini/core.a(spi.c.o)
                                                  C:\Users\Nandi\AppData\Local\V.Micro\Arduino\Builds\sharpmem\Arduino_STM32_mapleMini/core.a(dma.c.o)
rcc_clk_init                                      C:\Users\Nandi\AppData\Local\V.Micro\Arduino\Builds\sharpmem\Arduino_STM32_mapleMini/core.a(rcc_f1.c.o)
rcc_configure_pll                                 C:\Users\Nandi\AppData\Local\V.Micro\Arduino\Builds\sharpmem\Arduino_STM32_mapleMini/core.a(rcc_f1.c.o)
                                                  C:\Users\Nandi\AppData\Local\V.Micro\Arduino\Builds\sharpmem\Arduino_STM32_mapleMini/core.a(boards.cpp.o)
rcc_dev_clk                                       C:\Users\Nandi\AppData\Local\V.Micro\Arduino\Builds\sharpmem\Arduino_STM32_mapleMini/core.a(rcc.c.o)
                                                  C:\Users\Nandi\AppData\Local\V.Micro\Arduino\Builds\sharpmem\Arduino_STM32_mapleMini/core.a(usart_private.c.o)
                                                  C:\Users\Nandi\AppData\Local\V.Micro\Arduino\Builds\sharpmem\Arduino_STM32_mapleMini/core.a(rcc_f1.c.o)
                                                  C:\Users\Nandi\AppData\Local\V.Micro\Arduino\Builds\sharpmem\Arduino_STM32_mapleMini\SPI\SPI.cpp.o
rcc_dev_table                                     C:\Users\Nandi\AppData\Local\V.Micro\Arduino\Builds\sharpmem\Arduino_STM32_mapleMini/core.a(rcc_f1.c.o)
                                                  C:\Users\Nandi\AppData\Local\V.Micro\Arduino\Builds\sharpmem\Arduino_STM32_mapleMini/core.a(rcc.c.o)
rcc_is_clk_on                                     C:\Users\Nandi\AppData\Local\V.Micro\Arduino\Builds\sharpmem\Arduino_STM32_mapleMini/core.a(rcc.c.o)
rcc_is_clk_ready                                  C:\Users\Nandi\AppData\Local\V.Micro\Arduino\Builds\sharpmem\Arduino_STM32_mapleMini/core.a(rcc.c.o)
                                                  C:\Users\Nandi\AppData\Local\V.Micro\Arduino\Builds\sharpmem\Arduino_STM32_mapleMini/core.a(boards.cpp.o)
                                                  C:\Users\Nandi\AppData\Local\V.Micro\Arduino\Builds\sharpmem\Arduino_STM32_mapleMini/core.a(rcc_f1.c.o)
rcc_reset_dev                                     C:\Users\Nandi\AppData\Local\V.Micro\Arduino\Builds\sharpmem\Arduino_STM32_mapleMini/core.a(rcc_f1.c.o)
                                                  C:\Users\Nandi\AppData\Local\V.Micro\Arduino\Builds\sharpmem\Arduino_STM32_mapleMini/core.a(gpio.c.o)
                                                  C:\Users\Nandi\AppData\Local\V.Micro\Arduino\Builds\sharpmem\Arduino_STM32_mapleMini/core.a(gpio_f1.c.o)
                                                  C:\Users\Nandi\AppData\Local\V.Micro\Arduino\Builds\sharpmem\Arduino_STM32_mapleMini/core.a(adc.c.o)
                                                  C:\Users\Nandi\AppData\Local\V.Micro\Arduino\Builds\sharpmem\Arduino_STM32_mapleMini/core.a(timer.c.o)
                                                  C:\Users\Nandi\AppData\Local\V.Micro\Arduino\Builds\sharpmem\Arduino_STM32_mapleMini/core.a(spi.c.o)
rcc_set_prescaler                                 C:\Users\Nandi\AppData\Local\V.Micro\Arduino\Builds\sharpmem\Arduino_STM32_mapleMini/core.a(rcc_f1.c.o)
                                                  C:\Users\Nandi\AppData\Local\V.Micro\Arduino\Builds\sharpmem\Arduino_STM32_mapleMini/core.a(adc_f1.c.o)
                                                  C:\Users\Nandi\AppData\Local\V.Micro\Arduino\Builds\sharpmem\Arduino_STM32_mapleMini/core.a(boards_setup.cpp.o)
rcc_switch_sysclk                                 C:\Users\Nandi\AppData\Local\V.Micro\Arduino\Builds\sharpmem\Arduino_STM32_mapleMini/core.a(rcc.c.o)
                                                  C:\Users\Nandi\AppData\Local\V.Micro\Arduino\Builds\sharpmem\Arduino_STM32_mapleMini/core.a(boards.cpp.o)
                                                  C:\Users\Nandi\AppData\Local\V.Micro\Arduino\Builds\sharpmem\Arduino_STM32_mapleMini/core.a(rcc_f1.c.o)
rcc_turn_off_clk                                  C:\Users\Nandi\AppData\Local\V.Micro\Arduino\Builds\sharpmem\Arduino_STM32_mapleMini/core.a(rcc.c.o)
                                                  C:\Users\Nandi\AppData\Local\V.Micro\Arduino\Builds\sharpmem\Arduino_STM32_mapleMini/core.a(boards.cpp.o)
rcc_turn_on_clk                                   C:\Users\Nandi\AppData\Local\V.Micro\Arduino\Builds\sharpmem\Arduino_STM32_mapleMini/core.a(rcc.c.o)
                                                  C:\Users\Nandi\AppData\Local\V.Micro\Arduino\Builds\sharpmem\Arduino_STM32_mapleMini/core.a(boards.cpp.o)
                                                  C:\Users\Nandi\AppData\Local\V.Micro\Arduino\Builds\sharpmem\Arduino_STM32_mapleMini/core.a(rcc_f1.c.o)
setup()                                           C:\Users\Nandi\AppData\Local\V.Micro\Arduino\Builds\sharpmem\Arduino_STM32_mapleMini\sharpmem.cpp.o
                                                  C:\Users\Nandi\AppData\Local\V.Micro\Arduino\Builds\sharpmem\Arduino_STM32_mapleMini/core.a(main.cpp.o)
sharpmem_buffer                                   C:\Users\Nandi\AppData\Local\V.Micro\Arduino\Builds\sharpmem\Arduino_STM32_mapleMini\SharpMemSTM32.cpp.o
size                                              C:\Users\Nandi\AppData\Local\V.Micro\Arduino\Builds\sharpmem\Arduino_STM32_mapleMini\sharpmem.cpp.o
software_init_hook                                c:/users/nandi/appdata/roaming/arduino15/packages/arduino/tools/arm-none-eabi-gcc/4.8.3-2014q1/bin/../lib/gcc/arm-none-eabi/4.8.3/../../../../arm-none-eabi/lib/armv7-m/crt0.o
spi_config_gpios                                  C:\Users\Nandi\AppData\Local\V.Micro\Arduino\Builds\sharpmem\Arduino_STM32_mapleMini/core.a(spi_f1.c.o)
                                                  C:\Users\Nandi\AppData\Local\V.Micro\Arduino\Builds\sharpmem\Arduino_STM32_mapleMini\SPI\SPI.cpp.o
spi_foreach                                       C:\Users\Nandi\AppData\Local\V.Micro\Arduino\Builds\sharpmem\Arduino_STM32_mapleMini/core.a(spi_f1.c.o)
spi_init                                          C:\Users\Nandi\AppData\Local\V.Micro\Arduino\Builds\sharpmem\Arduino_STM32_mapleMini/core.a(spi.c.o)
                                                  C:\Users\Nandi\AppData\Local\V.Micro\Arduino\Builds\sharpmem\Arduino_STM32_mapleMini\SPI\SPI.cpp.o
spi_master_enable                                 C:\Users\Nandi\AppData\Local\V.Micro\Arduino\Builds\sharpmem\Arduino_STM32_mapleMini/core.a(spi.c.o)
                                                  C:\Users\Nandi\AppData\Local\V.Micro\Arduino\Builds\sharpmem\Arduino_STM32_mapleMini\SPI\SPI.cpp.o
spi_peripheral_disable                            C:\Users\Nandi\AppData\Local\V.Micro\Arduino\Builds\sharpmem\Arduino_STM32_mapleMini/core.a(spi.c.o)
                                                  C:\Users\Nandi\AppData\Local\V.Micro\Arduino\Builds\sharpmem\Arduino_STM32_mapleMini\SPI\SPI.cpp.o
spi_peripheral_enable                             C:\Users\Nandi\AppData\Local\V.Micro\Arduino\Builds\sharpmem\Arduino_STM32_mapleMini/core.a(spi.c.o)
spi_rx_dma_disable                                C:\Users\Nandi\AppData\Local\V.Micro\Arduino\Builds\sharpmem\Arduino_STM32_mapleMini/core.a(spi.c.o)
                                                  C:\Users\Nandi\AppData\Local\V.Micro\Arduino\Builds\sharpmem\Arduino_STM32_mapleMini\SPI\SPI.cpp.o
spi_rx_dma_enable                                 C:\Users\Nandi\AppData\Local\V.Micro\Arduino\Builds\sharpmem\Arduino_STM32_mapleMini/core.a(spi.c.o)
                                                  C:\Users\Nandi\AppData\Local\V.Micro\Arduino\Builds\sharpmem\Arduino_STM32_mapleMini\SPI\SPI.cpp.o
spi_slave_enable                                  C:\Users\Nandi\AppData\Local\V.Micro\Arduino\Builds\sharpmem\Arduino_STM32_mapleMini/core.a(spi.c.o)
                                                  C:\Users\Nandi\AppData\Local\V.Micro\Arduino\Builds\sharpmem\Arduino_STM32_mapleMini\SPI\SPI.cpp.o
spi_tx                                            C:\Users\Nandi\AppData\Local\V.Micro\Arduino\Builds\sharpmem\Arduino_STM32_mapleMini/core.a(spi.c.o)
                                                  C:\Users\Nandi\AppData\Local\V.Micro\Arduino\Builds\sharpmem\Arduino_STM32_mapleMini\SPI\SPI.cpp.o
spi_tx_dma_disable                                C:\Users\Nandi\AppData\Local\V.Micro\Arduino\Builds\sharpmem\Arduino_STM32_mapleMini/core.a(spi.c.o)
                                                  C:\Users\Nandi\AppData\Local\V.Micro\Arduino\Builds\sharpmem\Arduino_STM32_mapleMini\SPI\SPI.cpp.o
spi_tx_dma_enable                                 C:\Users\Nandi\AppData\Local\V.Micro\Arduino\Builds\sharpmem\Arduino_STM32_mapleMini/core.a(spi.c.o)
                                                  C:\Users\Nandi\AppData\Local\V.Micro\Arduino\Builds\sharpmem\Arduino_STM32_mapleMini\SPI\SPI.cpp.o
srand                                             c:/users/nandi/appdata/roaming/arduino15/packages/arduino/tools/arm-none-eabi-gcc/4.8.3-2014q1/bin/../lib/gcc/arm-none-eabi/4.8.3/../../../../arm-none-eabi/lib/armv7-m\libc.a(lib_a-rand.o)
start_c                                           C:\Users\Nandi\AppData\Local\V.Micro\Arduino\Builds\sharpmem\Arduino_STM32_mapleMini/core.a(start_c.c.o)
                                                  C:\Users\Nandi\AppData\Local\V.Micro\Arduino\Builds\sharpmem\Arduino_STM32_mapleMini/core.a(start.S.o)
strlen                                            c:/users/nandi/appdata/roaming/arduino15/packages/arduino/tools/arm-none-eabi-gcc/4.8.3-2014q1/bin/../lib/gcc/arm-none-eabi/4.8.3/../../../../arm-none-eabi/lib/armv7-m\libc.a(lib_a-strlen.o)
                                                  C:\Users\Nandi\AppData\Local\V.Micro\Arduino\Builds\sharpmem\Arduino_STM32_mapleMini/core.a(usb_serial.cpp.o)
                                                  C:\Users\Nandi\AppData\Local\V.Micro\Arduino\Builds\sharpmem\Arduino_STM32_mapleMini\Adafruit-GFX-Library-master\Adafruit_GFX.cpp.o
strncpy                                           c:/users/nandi/appdata/roaming/arduino15/packages/arduino/tools/arm-none-eabi-gcc/4.8.3-2014q1/bin/../lib/gcc/arm-none-eabi/4.8.3/../../../../arm-none-eabi/lib/armv7-m\libc.a(lib_a-strncpy.o)
                                                  C:\Users\Nandi\AppData\Local\V.Micro\Arduino\Builds\sharpmem\Arduino_STM32_mapleMini\Adafruit-GFX-Library-master\Adafruit_GFX.cpp.o
systick_attach_callback                           C:\Users\Nandi\AppData\Local\V.Micro\Arduino\Builds\sharpmem\Arduino_STM32_mapleMini/core.a(systick.c.o)
systick_disable                                   C:\Users\Nandi\AppData\Local\V.Micro\Arduino\Builds\sharpmem\Arduino_STM32_mapleMini/core.a(systick.c.o)
systick_enable                                    C:\Users\Nandi\AppData\Local\V.Micro\Arduino\Builds\sharpmem\Arduino_STM32_mapleMini/core.a(systick.c.o)
systick_init                                      C:\Users\Nandi\AppData\Local\V.Micro\Arduino\Builds\sharpmem\Arduino_STM32_mapleMini/core.a(systick.c.o)
                                                  C:\Users\Nandi\AppData\Local\V.Micro\Arduino\Builds\sharpmem\Arduino_STM32_mapleMini/core.a(boards.cpp.o)
systick_uptime_millis                             C:\Users\Nandi\AppData\Local\V.Micro\Arduino\Builds\sharpmem\Arduino_STM32_mapleMini/core.a(usb_serial.cpp.o)
                                                  C:\Users\Nandi\AppData\Local\V.Micro\Arduino\Builds\sharpmem\Arduino_STM32_mapleMini/core.a(systick.c.o)
                                                  C:\Users\Nandi\AppData\Local\V.Micro\Arduino\Builds\sharpmem\Arduino_STM32_mapleMini\SPI\SPI.cpp.o
                                                  C:\Users\Nandi\AppData\Local\V.Micro\Arduino\Builds\sharpmem\Arduino_STM32_mapleMini\sharpmem.cpp.o
throb                                             C:\Users\Nandi\AppData\Local\V.Micro\Arduino\Builds\sharpmem\Arduino_STM32_mapleMini/core.a(util.c.o)
timer1                                            C:\Users\Nandi\AppData\Local\V.Micro\Arduino\Builds\sharpmem\Arduino_STM32_mapleMini/core.a(timer.c.o)
                                                  C:\Users\Nandi\AppData\Local\V.Micro\Arduino\Builds\sharpmem\Arduino_STM32_mapleMini/core.a(board.cpp.o)
timer2                                            C:\Users\Nandi\AppData\Local\V.Micro\Arduino\Builds\sharpmem\Arduino_STM32_mapleMini/core.a(timer.c.o)
                                                  C:\Users\Nandi\AppData\Local\V.Micro\Arduino\Builds\sharpmem\Arduino_STM32_mapleMini/core.a(board.cpp.o)
timer3                                            C:\Users\Nandi\AppData\Local\V.Micro\Arduino\Builds\sharpmem\Arduino_STM32_mapleMini/core.a(timer.c.o)
                                                  C:\Users\Nandi\AppData\Local\V.Micro\Arduino\Builds\sharpmem\Arduino_STM32_mapleMini/core.a(board.cpp.o)
timer4                                            C:\Users\Nandi\AppData\Local\V.Micro\Arduino\Builds\sharpmem\Arduino_STM32_mapleMini/core.a(timer.c.o)
                                                  C:\Users\Nandi\AppData\Local\V.Micro\Arduino\Builds\sharpmem\Arduino_STM32_mapleMini/core.a(board.cpp.o)
timer_attach_interrupt                            C:\Users\Nandi\AppData\Local\V.Micro\Arduino\Builds\sharpmem\Arduino_STM32_mapleMini/core.a(timer.c.o)
timer_detach_interrupt                            C:\Users\Nandi\AppData\Local\V.Micro\Arduino\Builds\sharpmem\Arduino_STM32_mapleMini/core.a(timer.c.o)
timer_disable                                     C:\Users\Nandi\AppData\Local\V.Micro\Arduino\Builds\sharpmem\Arduino_STM32_mapleMini/core.a(timer.c.o)
timer_foreach                                     C:\Users\Nandi\AppData\Local\V.Micro\Arduino\Builds\sharpmem\Arduino_STM32_mapleMini/core.a(timer.c.o)
                                                  C:\Users\Nandi\AppData\Local\V.Micro\Arduino\Builds\sharpmem\Arduino_STM32_mapleMini/core.a(boards.cpp.o)
timer_has_cc_channel                              C:\Users\Nandi\AppData\Local\V.Micro\Arduino\Builds\sharpmem\Arduino_STM32_mapleMini/core.a(timer.c.o)
                                                  C:\Users\Nandi\AppData\Local\V.Micro\Arduino\Builds\sharpmem\Arduino_STM32_mapleMini/core.a(boards.cpp.o)
timer_init                                        C:\Users\Nandi\AppData\Local\V.Micro\Arduino\Builds\sharpmem\Arduino_STM32_mapleMini/core.a(timer.c.o)
                                                  C:\Users\Nandi\AppData\Local\V.Micro\Arduino\Builds\sharpmem\Arduino_STM32_mapleMini/core.a(boards.cpp.o)
timer_set_mode                                    C:\Users\Nandi\AppData\Local\V.Micro\Arduino\Builds\sharpmem\Arduino_STM32_mapleMini/core.a(timer.c.o)
                                                  C:\Users\Nandi\AppData\Local\V.Micro\Arduino\Builds\sharpmem\Arduino_STM32_mapleMini/core.a(HardwareSerial.cpp.o)
                                                  C:\Users\Nandi\AppData\Local\V.Micro\Arduino\Builds\sharpmem\Arduino_STM32_mapleMini/core.a(wirish_digital_f1.cpp.o)
                                                  C:\Users\Nandi\AppData\Local\V.Micro\Arduino\Builds\sharpmem\Arduino_STM32_mapleMini\SPI\SPI.cpp.o
tm1                                               C:\Users\Nandi\AppData\Local\V.Micro\Arduino\Builds\sharpmem\Arduino_STM32_mapleMini\sharpmem.cpp.o
tx                                                C:\Users\Nandi\AppData\Local\V.Micro\Arduino\Builds\sharpmem\Arduino_STM32_mapleMini\sharpmem.cpp.o
usart_config_gpios_async                          C:\Users\Nandi\AppData\Local\V.Micro\Arduino\Builds\sharpmem\Arduino_STM32_mapleMini/core.a(usart_f1.c.o)
                                                  C:\Users\Nandi\AppData\Local\V.Micro\Arduino\Builds\sharpmem\Arduino_STM32_mapleMini/core.a(HardwareSerial.cpp.o)
usart_disable                                     C:\Users\Nandi\AppData\Local\V.Micro\Arduino\Builds\sharpmem\Arduino_STM32_mapleMini/core.a(usart.c.o)
                                                  C:\Users\Nandi\AppData\Local\V.Micro\Arduino\Builds\sharpmem\Arduino_STM32_mapleMini/core.a(HardwareSerial.cpp.o)
usart_enable                                      C:\Users\Nandi\AppData\Local\V.Micro\Arduino\Builds\sharpmem\Arduino_STM32_mapleMini/core.a(usart.c.o)
                                                  C:\Users\Nandi\AppData\Local\V.Micro\Arduino\Builds\sharpmem\Arduino_STM32_mapleMini/core.a(HardwareSerial.cpp.o)
usart_foreach                                     C:\Users\Nandi\AppData\Local\V.Micro\Arduino\Builds\sharpmem\Arduino_STM32_mapleMini/core.a(usart_f1.c.o)
usart_init                                        C:\Users\Nandi\AppData\Local\V.Micro\Arduino\Builds\sharpmem\Arduino_STM32_mapleMini/core.a(usart.c.o)
                                                  C:\Users\Nandi\AppData\Local\V.Micro\Arduino\Builds\sharpmem\Arduino_STM32_mapleMini/core.a(HardwareSerial.cpp.o)
usart_putudec                                     C:\Users\Nandi\AppData\Local\V.Micro\Arduino\Builds\sharpmem\Arduino_STM32_mapleMini/core.a(usart.c.o)
                                                  C:\Users\Nandi\AppData\Local\V.Micro\Arduino\Builds\sharpmem\Arduino_STM32_mapleMini/core.a(util.c.o)
usart_rx                                          C:\Users\Nandi\AppData\Local\V.Micro\Arduino\Builds\sharpmem\Arduino_STM32_mapleMini/core.a(usart.c.o)
usart_set_baud_rate                               C:\Users\Nandi\AppData\Local\V.Micro\Arduino\Builds\sharpmem\Arduino_STM32_mapleMini/core.a(usart_f1.c.o)
                                                  C:\Users\Nandi\AppData\Local\V.Micro\Arduino\Builds\sharpmem\Arduino_STM32_mapleMini/core.a(HardwareSerial.cpp.o)
usart_tx                                          C:\Users\Nandi\AppData\Local\V.Micro\Arduino\Builds\sharpmem\Arduino_STM32_mapleMini/core.a(usart.c.o)
                                                  C:\Users\Nandi\AppData\Local\V.Micro\Arduino\Builds\sharpmem\Arduino_STM32_mapleMini/core.a(HardwareSerial.cpp.o)
                                                  C:\Users\Nandi\AppData\Local\V.Micro\Arduino\Builds\sharpmem\Arduino_STM32_mapleMini/core.a(util.c.o)
usb_cdcacm_data_available                         C:\Users\Nandi\AppData\Local\V.Micro\Arduino\Builds\sharpmem\Arduino_STM32_mapleMini/core.a(usb_cdcacm.c.o)
                                                  C:\Users\Nandi\AppData\Local\V.Micro\Arduino\Builds\sharpmem\Arduino_STM32_mapleMini/core.a(usb_serial.cpp.o)
usb_cdcacm_disable                                C:\Users\Nandi\AppData\Local\V.Micro\Arduino\Builds\sharpmem\Arduino_STM32_mapleMini/core.a(usb_cdcacm.c.o)
                                                  C:\Users\Nandi\AppData\Local\V.Micro\Arduino\Builds\sharpmem\Arduino_STM32_mapleMini/core.a(usb_serial.cpp.o)
usb_cdcacm_enable                                 C:\Users\Nandi\AppData\Local\V.Micro\Arduino\Builds\sharpmem\Arduino_STM32_mapleMini/core.a(usb_cdcacm.c.o)
                                                  C:\Users\Nandi\AppData\Local\V.Micro\Arduino\Builds\sharpmem\Arduino_STM32_mapleMini/core.a(usb_serial.cpp.o)
usb_cdcacm_get_baud                               C:\Users\Nandi\AppData\Local\V.Micro\Arduino\Builds\sharpmem\Arduino_STM32_mapleMini/core.a(usb_cdcacm.c.o)
                                                  C:\Users\Nandi\AppData\Local\V.Micro\Arduino\Builds\sharpmem\Arduino_STM32_mapleMini/core.a(usb_serial.cpp.o)
usb_cdcacm_get_dtr                                C:\Users\Nandi\AppData\Local\V.Micro\Arduino\Builds\sharpmem\Arduino_STM32_mapleMini/core.a(usb_cdcacm.c.o)
                                                  C:\Users\Nandi\AppData\Local\V.Micro\Arduino\Builds\sharpmem\Arduino_STM32_mapleMini/core.a(usb_serial.cpp.o)
usb_cdcacm_get_line_coding                        C:\Users\Nandi\AppData\Local\V.Micro\Arduino\Builds\sharpmem\Arduino_STM32_mapleMini/core.a(usb_cdcacm.c.o)
usb_cdcacm_get_n_data_bits                        C:\Users\Nandi\AppData\Local\V.Micro\Arduino\Builds\sharpmem\Arduino_STM32_mapleMini/core.a(usb_cdcacm.c.o)
usb_cdcacm_get_parity                             C:\Users\Nandi\AppData\Local\V.Micro\Arduino\Builds\sharpmem\Arduino_STM32_mapleMini/core.a(usb_cdcacm.c.o)
usb_cdcacm_get_pending                            C:\Users\Nandi\AppData\Local\V.Micro\Arduino\Builds\sharpmem\Arduino_STM32_mapleMini/core.a(usb_cdcacm.c.o)
                                                  C:\Users\Nandi\AppData\Local\V.Micro\Arduino\Builds\sharpmem\Arduino_STM32_mapleMini/core.a(usb_serial.cpp.o)
usb_cdcacm_get_rts                                C:\Users\Nandi\AppData\Local\V.Micro\Arduino\Builds\sharpmem\Arduino_STM32_mapleMini/core.a(usb_cdcacm.c.o)
                                                  C:\Users\Nandi\AppData\Local\V.Micro\Arduino\Builds\sharpmem\Arduino_STM32_mapleMini/core.a(usb_serial.cpp.o)
usb_cdcacm_get_stop_bits                          C:\Users\Nandi\AppData\Local\V.Micro\Arduino\Builds\sharpmem\Arduino_STM32_mapleMini/core.a(usb_cdcacm.c.o)
usb_cdcacm_is_transmitting                        C:\Users\Nandi\AppData\Local\V.Micro\Arduino\Builds\sharpmem\Arduino_STM32_mapleMini/core.a(usb_cdcacm.c.o)
                                                  C:\Users\Nandi\AppData\Local\V.Micro\Arduino\Builds\sharpmem\Arduino_STM32_mapleMini/core.a(usb_serial.cpp.o)
usb_cdcacm_peek                                   C:\Users\Nandi\AppData\Local\V.Micro\Arduino\Builds\sharpmem\Arduino_STM32_mapleMini/core.a(usb_cdcacm.c.o)
                                                  C:\Users\Nandi\AppData\Local\V.Micro\Arduino\Builds\sharpmem\Arduino_STM32_mapleMini/core.a(usb_serial.cpp.o)
usb_cdcacm_peek_char                              C:\Users\Nandi\AppData\Local\V.Micro\Arduino\Builds\sharpmem\Arduino_STM32_mapleMini/core.a(usb_cdcacm.c.o)
usb_cdcacm_peek_ex                                C:\Users\Nandi\AppData\Local\V.Micro\Arduino\Builds\sharpmem\Arduino_STM32_mapleMini/core.a(usb_cdcacm.c.o)
                                                  C:\Users\Nandi\AppData\Local\V.Micro\Arduino\Builds\sharpmem\Arduino_STM32_mapleMini/core.a(usb_serial.cpp.o)
usb_cdcacm_putc                                   C:\Users\Nandi\AppData\Local\V.Micro\Arduino\Builds\sharpmem\Arduino_STM32_mapleMini/core.a(usb_cdcacm.c.o)
usb_cdcacm_rx                                     C:\Users\Nandi\AppData\Local\V.Micro\Arduino\Builds\sharpmem\Arduino_STM32_mapleMini/core.a(usb_cdcacm.c.o)
                                                  C:\Users\Nandi\AppData\Local\V.Micro\Arduino\Builds\sharpmem\Arduino_STM32_mapleMini/core.a(usb_serial.cpp.o)
usb_cdcacm_set_hooks                              C:\Users\Nandi\AppData\Local\V.Micro\Arduino\Builds\sharpmem\Arduino_STM32_mapleMini/core.a(usb_cdcacm.c.o)
                                                  C:\Users\Nandi\AppData\Local\V.Micro\Arduino\Builds\sharpmem\Arduino_STM32_mapleMini/core.a(usb_serial.cpp.o)
usb_cdcacm_tx                                     C:\Users\Nandi\AppData\Local\V.Micro\Arduino\Builds\sharpmem\Arduino_STM32_mapleMini/core.a(usb_cdcacm.c.o)
                                                  C:\Users\Nandi\AppData\Local\V.Micro\Arduino\Builds\sharpmem\Arduino_STM32_mapleMini/core.a(usb_serial.cpp.o)
usb_copy_from_pma                                 C:\Users\Nandi\AppData\Local\V.Micro\Arduino\Builds\sharpmem\Arduino_STM32_mapleMini/core.a(usb_reg_map.c.o)
                                                  C:\Users\Nandi\AppData\Local\V.Micro\Arduino\Builds\sharpmem\Arduino_STM32_mapleMini/core.a(usb_cdcacm.c.o)
usb_copy_to_pma                                   C:\Users\Nandi\AppData\Local\V.Micro\Arduino\Builds\sharpmem\Arduino_STM32_mapleMini/core.a(usb_reg_map.c.o)
                                                  C:\Users\Nandi\AppData\Local\V.Micro\Arduino\Builds\sharpmem\Arduino_STM32_mapleMini/core.a(usb_cdcacm.c.o)
usb_init_usblib                                   C:\Users\Nandi\AppData\Local\V.Micro\Arduino\Builds\sharpmem\Arduino_STM32_mapleMini/core.a(usb.c.o)
                                                  C:\Users\Nandi\AppData\Local\V.Micro\Arduino\Builds\sharpmem\Arduino_STM32_mapleMini/core.a(usb_cdcacm.c.o)
usb_set_ep_rx_buf0_count                          C:\Users\Nandi\AppData\Local\V.Micro\Arduino\Builds\sharpmem\Arduino_STM32_mapleMini/core.a(usb_reg_map.c.o)
usb_set_ep_rx_count                               C:\Users\Nandi\AppData\Local\V.Micro\Arduino\Builds\sharpmem\Arduino_STM32_mapleMini/core.a(usb_reg_map.c.o)
                                                  C:\Users\Nandi\AppData\Local\V.Micro\Arduino\Builds\sharpmem\Arduino_STM32_mapleMini/core.a(usb_cdcacm.c.o)
vtable for Adafruit_GFX                           C:\Users\Nandi\AppData\Local\V.Micro\Arduino\Builds\sharpmem\Arduino_STM32_mapleMini\Adafruit-GFX-Library-master\Adafruit_GFX.cpp.o
vtable for HardwareSerial                         C:\Users\Nandi\AppData\Local\V.Micro\Arduino\Builds\sharpmem\Arduino_STM32_mapleMini/core.a(HardwareSerial.cpp.o)
vtable for Print                                  C:\Users\Nandi\AppData\Local\V.Micro\Arduino\Builds\sharpmem\Arduino_STM32_mapleMini/core.a(Print.cpp.o)
vtable for SharpMem                               C:\Users\Nandi\AppData\Local\V.Micro\Arduino\Builds\sharpmem\Arduino_STM32_mapleMini\SharpMemSTM32.cpp.o
vtable for Stream                                 C:\Users\Nandi\AppData\Local\V.Micro\Arduino\Builds\sharpmem\Arduino_STM32_mapleMini/core.a(usb_serial.cpp.o)
                                                  C:\Users\Nandi\AppData\Local\V.Micro\Arduino\Builds\sharpmem\Arduino_STM32_mapleMini/core.a(HardwareSerial.cpp.o)
vtable for USBSerial                              C:\Users\Nandi\AppData\Local\V.Micro\Arduino\Builds\sharpmem\Arduino_STM32_mapleMini/core.a(usb_serial.cpp.o)
wInterrupt_Mask                                   C:\Users\Nandi\AppData\Local\V.Micro\Arduino\Builds\sharpmem\Arduino_STM32_mapleMini/core.a(usb_init.c.o)
wirish::priv::board_reset_pll()                   C:\Users\Nandi\AppData\Local\V.Micro\Arduino\Builds\sharpmem\Arduino_STM32_mapleMini/core.a(boards_setup.cpp.o)
                                                  C:\Users\Nandi\AppData\Local\V.Micro\Arduino\Builds\sharpmem\Arduino_STM32_mapleMini/core.a(boards.cpp.o)
wirish::priv::board_setup_clock_prescalers()      C:\Users\Nandi\AppData\Local\V.Micro\Arduino\Builds\sharpmem\Arduino_STM32_mapleMini/core.a(boards_setup.cpp.o)
                                                  C:\Users\Nandi\AppData\Local\V.Micro\Arduino\Builds\sharpmem\Arduino_STM32_mapleMini/core.a(boards.cpp.o)
wirish::priv::board_setup_gpio()                  C:\Users\Nandi\AppData\Local\V.Micro\Arduino\Builds\sharpmem\Arduino_STM32_mapleMini/core.a(boards_setup.cpp.o)
                                                  C:\Users\Nandi\AppData\Local\V.Micro\Arduino\Builds\sharpmem\Arduino_STM32_mapleMini/core.a(boards.cpp.o)
wirish::priv::board_setup_usb()                   C:\Users\Nandi\AppData\Local\V.Micro\Arduino\Builds\sharpmem\Arduino_STM32_mapleMini/core.a(boards_setup.cpp.o)
                                                  C:\Users\Nandi\AppData\Local\V.Micro\Arduino\Builds\sharpmem\Arduino_STM32_mapleMini/core.a(boards.cpp.o)
wirish::priv::series_init()                       C:\Users\Nandi\AppData\Local\V.Micro\Arduino\Builds\sharpmem\Arduino_STM32_mapleMini/core.a(boards_setup.cpp.o)
                                                  C:\Users\Nandi\AppData\Local\V.Micro\Arduino\Builds\sharpmem\Arduino_STM32_mapleMini/core.a(boards.cpp.o)
wirish::priv::w_adc_pre                           C:\Users\Nandi\AppData\Local\V.Micro\Arduino\Builds\sharpmem\Arduino_STM32_mapleMini/core.a(boards_setup.cpp.o)
                                                  C:\Users\Nandi\AppData\Local\V.Micro\Arduino\Builds\sharpmem\Arduino_STM32_mapleMini/core.a(boards.cpp.o)
wirish::priv::w_adc_smp                           C:\Users\Nandi\AppData\Local\V.Micro\Arduino\Builds\sharpmem\Arduino_STM32_mapleMini/core.a(boards_setup.cpp.o)
                                                  C:\Users\Nandi\AppData\Local\V.Micro\Arduino\Builds\sharpmem\Arduino_STM32_mapleMini/core.a(boards.cpp.o)
wirish::priv::w_board_pll_cfg                     C:\Users\Nandi\AppData\Local\V.Micro\Arduino\Builds\sharpmem\Arduino_STM32_mapleMini/core.a(boards_setup.cpp.o)
                                                  C:\Users\Nandi\AppData\Local\V.Micro\Arduino\Builds\sharpmem\Arduino_STM32_mapleMini/core.a(boards.cpp.o)
